(dp0
S'TAt'
p1
(F1.4543061494299998
cnumpy.core.multiarray
scalar
p2
(cnumpy
dtype
p3
(S'f8'
p4
I0
I1
tp5
Rp6
(I3
S'<'
p7
NNNI-1
I-1
I0
tp8
bS'\xd3\xeb\x00:\x86\xc1c@'
p9
tp10
Rp11
g2
(g6
S'\xee3B\x8dO-s?'
p12
tp13
Rp14
tp15
sS'AGG'
p16
(F1.4543061494299998
g2
(g6
S'\xd3\xeb\x00:\x86\xc1c@'
p17
tp18
Rp19
g2
(g6
S'\xee3B\x8dO-s?'
p20
tp21
Rp22
tp23
sS'AGC'
p24
(F1.4543061494299998
g2
(g6
S'\xd3\xeb\x00:\x86\xc1c@'
p25
tp26
Rp27
g2
(g6
S'\xee3B\x8dO-s?'
p28
tp29
Rp30
tp31
sS'AGA'
p32
(F1.4543061494299998
g2
(g6
S'\xd3\xeb\x00:\x86\xc1c@'
p33
tp34
Rp35
g2
(g6
S'\xee3B\x8dO-s?'
p36
tp37
Rp38
tp39
sS'tAg'
p40
(F1.4543061494299998
g2
(g6
S'\xd3\xeb\x00:\x86\xc1c@'
p41
tp42
Rp43
g2
(g6
S'\xee3B\x8dO-s?'
p44
tp45
Rp46
tp47
sS'TAg'
p48
(F1.4543061494299998
g2
(g6
S'\xd3\xeb\x00:\x86\xc1c@'
p49
tp50
Rp51
g2
(g6
S'\xee3B\x8dO-s?'
p52
tp53
Rp54
tp55
sS'TAa'
p56
(F1.4543061494299998
g2
(g6
S'\xd3\xeb\x00:\x86\xc1c@'
p57
tp58
Rp59
g2
(g6
S'\xee3B\x8dO-s?'
p60
tp61
Rp62
tp63
sS'TAc'
p64
(F1.4543061494299998
g2
(g6
S'\xd3\xeb\x00:\x86\xc1c@'
p65
tp66
Rp67
g2
(g6
S'\xee3B\x8dO-s?'
p68
tp69
Rp70
tp71
sS'AGT'
p72
(F1.4543061494299998
g2
(g6
S'\xd3\xeb\x00:\x86\xc1c@'
p73
tp74
Rp75
g2
(g6
S'\xee3B\x8dO-s?'
p76
tp77
Rp78
tp79
sS'TAT'
p80
(F1.4543061494299998
g2
(g6
S'\xd3\xeb\x00:\x86\xc1c@'
p81
tp82
Rp83
g2
(g6
S'\xee3B\x8dO-s?'
p84
tp85
Rp86
tp87
sS'AGg'
p88
(F1.4543061494299998
g2
(g6
S'\xd3\xeb\x00:\x86\xc1c@'
p89
tp90
Rp91
g2
(g6
S'\xee3B\x8dO-s?'
p92
tp93
Rp94
tp95
sS'AGc'
p96
(F1.4543061494299998
g2
(g6
S'\xd3\xeb\x00:\x86\xc1c@'
p97
tp98
Rp99
g2
(g6
S'\xee3B\x8dO-s?'
p100
tp101
Rp102
tp103
sS'AGa'
p104
(F1.4543061494299998
g2
(g6
S'\xd3\xeb\x00:\x86\xc1c@'
p105
tp106
Rp107
g2
(g6
S'\xee3B\x8dO-s?'
p108
tp109
Rp110
tp111
sS'tTG'
p112
(F1.4543061494299998
g2
(g6
S'\xd3\xeb\x00:\x86\xc1c@'
p113
tp114
Rp115
g2
(g6
S'\xee3B\x8dO-s?'
p116
tp117
Rp118
tp119
sS'TAG'
p120
(F1.4543061494299998
g2
(g6
S'\xd3\xeb\x00:\x86\xc1c@'
p121
tp122
Rp123
g2
(g6
S'\xee3B\x8dO-s?'
p124
tp125
Rp126
tp127
sS'TAA'
p128
(F1.4543061494299998
g2
(g6
S'\xd3\xeb\x00:\x86\xc1c@'
p129
tp130
Rp131
g2
(g6
S'\xee3B\x8dO-s?'
p132
tp133
Rp134
tp135
sS'TAC'
p136
(F1.4543061494299998
g2
(g6
S'\xd3\xeb\x00:\x86\xc1c@'
p137
tp138
Rp139
g2
(g6
S'\xee3B\x8dO-s?'
p140
tp141
Rp142
tp143
sS'AGt'
p144
(F1.4543061494299998
g2
(g6
S'\xd3\xeb\x00:\x86\xc1c@'
p145
tp146
Rp147
g2
(g6
S'\xee3B\x8dO-s?'
p148
tp149
Rp150
tp151
sS'TaT'
p152
(F1.4543061494299998
g2
(g6
S'\xd3\xeb\x00:\x86\xc1c@'
p153
tp154
Rp155
g2
(g6
S'\xee3B\x8dO-s?'
p156
tp157
Rp158
tp159
sS'TaG'
p160
(F1.4543061494299998
g2
(g6
S'\xd3\xeb\x00:\x86\xc1c@'
p161
tp162
Rp163
g2
(g6
S'\xee3B\x8dO-s?'
p164
tp165
Rp166
tp167
sS'TaA'
p168
(F1.4543061494299998
g2
(g6
S'\xd3\xeb\x00:\x86\xc1c@'
p169
tp170
Rp171
g2
(g6
S'\xee3B\x8dO-s?'
p172
tp173
Rp174
tp175
sS'TaC'
p176
(F1.4543061494299998
g2
(g6
S'\xd3\xeb\x00:\x86\xc1c@'
p177
tp178
Rp179
g2
(g6
S'\xee3B\x8dO-s?'
p180
tp181
Rp182
tp183
sS'Tat'
p184
(F1.4543061494299998
g2
(g6
S'\xd3\xeb\x00:\x86\xc1c@'
p185
tp186
Rp187
g2
(g6
S'\xee3B\x8dO-s?'
p188
tp189
Rp190
tp191
sS'Tag'
p192
(F1.4543061494299998
g2
(g6
S'\xd3\xeb\x00:\x86\xc1c@'
p193
tp194
Rp195
g2
(g6
S'\xee3B\x8dO-s?'
p196
tp197
Rp198
tp199
sS'Taa'
p200
(F1.4543061494299998
g2
(g6
S'\xd3\xeb\x00:\x86\xc1c@'
p201
tp202
Rp203
g2
(g6
S'\xee3B\x8dO-s?'
p204
tp205
Rp206
tp207
sS'Tac'
p208
(F1.4543061494299998
g2
(g6
S'\xd3\xeb\x00:\x86\xc1c@'
p209
tp210
Rp211
g2
(g6
S'\xee3B\x8dO-s?'
p212
tp213
Rp214
tp215
sS'cTt'
p216
(F1.4543061494299998
g2
(g6
S'\xd3\xeb\x00:\x86\xc1c@'
p217
tp218
Rp219
g2
(g6
S'\xee3B\x8dO-s?'
p220
tp221
Rp222
tp223
sS'gTa'
p224
(F1.4543061494299998
g2
(g6
S'\xd3\xeb\x00:\x86\xc1c@'
p225
tp226
Rp227
g2
(g6
S'\xee3B\x8dO-s?'
p228
tp229
Rp230
tp231
sS'TTt'
p232
(F1.4543061494299998
g2
(g6
S'\xd3\xeb\x00:\x86\xc1c@'
p233
tp234
Rp235
g2
(g6
S'\xee3B\x8dO-s?'
p236
tp237
Rp238
tp239
sS'cTg'
p240
(F1.4543061494299998
g2
(g6
S'\xd3\xeb\x00:\x86\xc1c@'
p241
tp242
Rp243
g2
(g6
S'\xee3B\x8dO-s?'
p244
tp245
Rp246
tp247
sS'cTa'
p248
(F1.4543061494299998
g2
(g6
S'\xd3\xeb\x00:\x86\xc1c@'
p249
tp250
Rp251
g2
(g6
S'\xee3B\x8dO-s?'
p252
tp253
Rp254
tp255
sS'cTc'
p256
(F1.4543061494299998
g2
(g6
S'\xd3\xeb\x00:\x86\xc1c@'
p257
tp258
Rp259
g2
(g6
S'\xee3B\x8dO-s?'
p260
tp261
Rp262
tp263
sS'TTc'
p264
(F1.4543061494299998
g2
(g6
S'\xd3\xeb\x00:\x86\xc1c@'
p265
tp266
Rp267
g2
(g6
S'\xee3B\x8dO-s?'
p268
tp269
Rp270
tp271
sS'TTa'
p272
(F1.4543061494299998
g2
(g6
S'\xd3\xeb\x00:\x86\xc1c@'
p273
tp274
Rp275
g2
(g6
S'\xee3B\x8dO-s?'
p276
tp277
Rp278
tp279
sS'TTg'
p280
(F1.4543061494299998
g2
(g6
S'\xd3\xeb\x00:\x86\xc1c@'
p281
tp282
Rp283
g2
(g6
S'\xee3B\x8dO-s?'
p284
tp285
Rp286
tp287
sS'cTT'
p288
(F1.4543061494299998
g2
(g6
S'\xd3\xeb\x00:\x86\xc1c@'
p289
tp290
Rp291
g2
(g6
S'\xee3B\x8dO-s?'
p292
tp293
Rp294
tp295
sS'gTg'
p296
(F1.4543061494299998
g2
(g6
S'\xd3\xeb\x00:\x86\xc1c@'
p297
tp298
Rp299
g2
(g6
S'\xee3B\x8dO-s?'
p300
tp301
Rp302
tp303
sS'TTT'
p304
(F1.4543061494299998
g2
(g6
S'\xd3\xeb\x00:\x86\xc1c@'
p305
tp306
Rp307
g2
(g6
S'\xee3B\x8dO-s?'
p308
tp309
Rp310
tp311
sS'cTG'
p312
(F1.4543061494299998
g2
(g6
S'\xd3\xeb\x00:\x86\xc1c@'
p313
tp314
Rp315
g2
(g6
S'\xee3B\x8dO-s?'
p316
tp317
Rp318
tp319
sS'cTA'
p320
(F1.4543061494299998
g2
(g6
S'\xd3\xeb\x00:\x86\xc1c@'
p321
tp322
Rp323
g2
(g6
S'\xee3B\x8dO-s?'
p324
tp325
Rp326
tp327
sS'cTC'
p328
(F1.4543061494299998
g2
(g6
S'\xd3\xeb\x00:\x86\xc1c@'
p329
tp330
Rp331
g2
(g6
S'\xee3B\x8dO-s?'
p332
tp333
Rp334
tp335
sS'TTC'
p336
(F1.4543061494299998
g2
(g6
S'\xd3\xeb\x00:\x86\xc1c@'
p337
tp338
Rp339
g2
(g6
S'\xee3B\x8dO-s?'
p340
tp341
Rp342
tp343
sS'gAa'
p344
(F1.4543061494299998
g2
(g6
S'\xd3\xeb\x00:\x86\xc1c@'
p345
tp346
Rp347
g2
(g6
S'\xee3B\x8dO-s?'
p348
tp349
Rp350
tp351
sS'TTA'
p352
(F1.4543061494299998
g2
(g6
S'\xd3\xeb\x00:\x86\xc1c@'
p353
tp354
Rp355
g2
(g6
S'\xee3B\x8dO-s?'
p356
tp357
Rp358
tp359
sS'TTG'
p360
(F1.4543061494299998
g2
(g6
S'\xd3\xeb\x00:\x86\xc1c@'
p361
tp362
Rp363
g2
(g6
S'\xee3B\x8dO-s?'
p364
tp365
Rp366
tp367
sS'tGg'
p368
(F1.4543061494299998
g2
(g6
S'\xd3\xeb\x00:\x86\xc1c@'
p369
tp370
Rp371
g2
(g6
S'\xee3B\x8dO-s?'
p372
tp373
Rp374
tp375
sS'ctT'
p376
(F1.4543061494299998
g2
(g6
S'\xd3\xeb\x00:\x86\xc1c@'
p377
tp378
Rp379
g2
(g6
S'\xee3B\x8dO-s?'
p380
tp381
Rp382
tp383
sS'ggt'
p384
(F1.4543061494299998
g2
(g6
S'\xd3\xeb\x00:\x86\xc1c@'
p385
tp386
Rp387
g2
(g6
S'\xee3B\x8dO-s?'
p388
tp389
Rp390
tp391
sS'Agg'
p392
(F1.4543061494299998
g2
(g6
S'\xd3\xeb\x00:\x86\xc1c@'
p393
tp394
Rp395
g2
(g6
S'\xee3B\x8dO-s?'
p396
tp397
Rp398
tp399
sS'Agc'
p400
(F1.4543061494299998
g2
(g6
S'\xd3\xeb\x00:\x86\xc1c@'
p401
tp402
Rp403
g2
(g6
S'\xee3B\x8dO-s?'
p404
tp405
Rp406
tp407
sS'Aga'
p408
(F1.4543061494299998
g2
(g6
S'\xd3\xeb\x00:\x86\xc1c@'
p409
tp410
Rp411
g2
(g6
S'\xee3B\x8dO-s?'
p412
tp413
Rp414
tp415
sS'TtT'
p416
(F1.4543061494299998
g2
(g6
S'\xd3\xeb\x00:\x86\xc1c@'
p417
tp418
Rp419
g2
(g6
S'\xee3B\x8dO-s?'
p420
tp421
Rp422
tp423
sS'ggg'
p424
(F1.4543061494299998
g2
(g6
S'\xd3\xeb\x00:\x86\xc1c@'
p425
tp426
Rp427
g2
(g6
S'\xee3B\x8dO-s?'
p428
tp429
Rp430
tp431
sS'ctG'
p432
(F1.4543061494299998
g2
(g6
S'\xd3\xeb\x00:\x86\xc1c@'
p433
tp434
Rp435
g2
(g6
S'\xee3B\x8dO-s?'
p436
tp437
Rp438
tp439
sS'gga'
p440
(F1.4543061494299998
g2
(g6
S'\xd3\xeb\x00:\x86\xc1c@'
p441
tp442
Rp443
g2
(g6
S'\xee3B\x8dO-s?'
p444
tp445
Rp446
tp447
sS'ctA'
p448
(F1.4543061494299998
g2
(g6
S'\xd3\xeb\x00:\x86\xc1c@'
p449
tp450
Rp451
g2
(g6
S'\xee3B\x8dO-s?'
p452
tp453
Rp454
tp455
sS'ggc'
p456
(F1.4543061494299998
g2
(g6
S'\xd3\xeb\x00:\x86\xc1c@'
p457
tp458
Rp459
g2
(g6
S'\xee3B\x8dO-s?'
p460
tp461
Rp462
tp463
sS'ctC'
p464
(F1.4543061494299998
g2
(g6
S'\xd3\xeb\x00:\x86\xc1c@'
p465
tp466
Rp467
g2
(g6
S'\xee3B\x8dO-s?'
p468
tp469
Rp470
tp471
sS'TtC'
p472
(F1.4543061494299998
g2
(g6
S'\xd3\xeb\x00:\x86\xc1c@'
p473
tp474
Rp475
g2
(g6
S'\xee3B\x8dO-s?'
p476
tp477
Rp478
tp479
sS'TtA'
p480
(F1.4543061494299998
g2
(g6
S'\xd3\xeb\x00:\x86\xc1c@'
p481
tp482
Rp483
g2
(g6
S'\xee3B\x8dO-s?'
p484
tp485
Rp486
tp487
sS'Agt'
p488
(F1.4543061494299998
g2
(g6
S'\xd3\xeb\x00:\x86\xc1c@'
p489
tp490
Rp491
g2
(g6
S'\xee3B\x8dO-s?'
p492
tp493
Rp494
tp495
sS'TtG'
p496
(F1.4543061494299998
g2
(g6
S'\xd3\xeb\x00:\x86\xc1c@'
p497
tp498
Rp499
g2
(g6
S'\xee3B\x8dO-s?'
p500
tp501
Rp502
tp503
sS'ctt'
p504
(F1.4543061494299998
g2
(g6
S'\xd3\xeb\x00:\x86\xc1c@'
p505
tp506
Rp507
g2
(g6
S'\xee3B\x8dO-s?'
p508
tp509
Rp510
tp511
sS'ggT'
p512
(F1.4543061494299998
g2
(g6
S'\xd3\xeb\x00:\x86\xc1c@'
p513
tp514
Rp515
g2
(g6
S'\xee3B\x8dO-s?'
p516
tp517
Rp518
tp519
sS'AgG'
p520
(F1.4543061494299998
g2
(g6
S'\xd3\xeb\x00:\x86\xc1c@'
p521
tp522
Rp523
g2
(g6
S'\xee3B\x8dO-s?'
p524
tp525
Rp526
tp527
sS'AgC'
p528
(F1.4543061494299998
g2
(g6
S'\xd3\xeb\x00:\x86\xc1c@'
p529
tp530
Rp531
g2
(g6
S'\xee3B\x8dO-s?'
p532
tp533
Rp534
tp535
sS'AgA'
p536
(F1.4543061494299998
g2
(g6
S'\xd3\xeb\x00:\x86\xc1c@'
p537
tp538
Rp539
g2
(g6
S'\xee3B\x8dO-s?'
p540
tp541
Rp542
tp543
sS'Ttt'
p544
(F1.4543061494299998
g2
(g6
S'\xd3\xeb\x00:\x86\xc1c@'
p545
tp546
Rp547
g2
(g6
S'\xee3B\x8dO-s?'
p548
tp549
Rp550
tp551
sS'ggG'
p552
(F1.4543061494299998
g2
(g6
S'\xd3\xeb\x00:\x86\xc1c@'
p553
tp554
Rp555
g2
(g6
S'\xee3B\x8dO-s?'
p556
tp557
Rp558
tp559
sS'ctg'
p560
(F1.4543061494299998
g2
(g6
S'\xd3\xeb\x00:\x86\xc1c@'
p561
tp562
Rp563
g2
(g6
S'\xee3B\x8dO-s?'
p564
tp565
Rp566
tp567
sS'ggA'
p568
(F1.4543061494299998
g2
(g6
S'\xd3\xeb\x00:\x86\xc1c@'
p569
tp570
Rp571
g2
(g6
S'\xee3B\x8dO-s?'
p572
tp573
Rp574
tp575
sS'cta'
p576
(F1.4543061494299998
g2
(g6
S'\xd3\xeb\x00:\x86\xc1c@'
p577
tp578
Rp579
g2
(g6
S'\xee3B\x8dO-s?'
p580
tp581
Rp582
tp583
sS'ggC'
p584
(F1.4543061494299998
g2
(g6
S'\xd3\xeb\x00:\x86\xc1c@'
p585
tp586
Rp587
g2
(g6
S'\xee3B\x8dO-s?'
p588
tp589
Rp590
tp591
sS'ctc'
p592
(F1.4543061494299998
g2
(g6
S'\xd3\xeb\x00:\x86\xc1c@'
p593
tp594
Rp595
g2
(g6
S'\xee3B\x8dO-s?'
p596
tp597
Rp598
tp599
sS'Ttc'
p600
(F1.4543061494299998
g2
(g6
S'\xd3\xeb\x00:\x86\xc1c@'
p601
tp602
Rp603
g2
(g6
S'\xee3B\x8dO-s?'
p604
tp605
Rp606
tp607
sS'Tta'
p608
(F1.4543061494299998
g2
(g6
S'\xd3\xeb\x00:\x86\xc1c@'
p609
tp610
Rp611
g2
(g6
S'\xee3B\x8dO-s?'
p612
tp613
Rp614
tp615
sS'AgT'
p616
(F1.4543061494299998
g2
(g6
S'\xd3\xeb\x00:\x86\xc1c@'
p617
tp618
Rp619
g2
(g6
S'\xee3B\x8dO-s?'
p620
tp621
Rp622
tp623
sS'Ttg'
p624
(F1.4543061494299998
g2
(g6
S'\xd3\xeb\x00:\x86\xc1c@'
p625
tp626
Rp627
g2
(g6
S'\xee3B\x8dO-s?'
p628
tp629
Rp630
tp631
sS'CTT'
p632
(F1.4543061494299998
g2
(g6
S'\xd3\xeb\x00:\x86\xc1c@'
p633
tp634
Rp635
g2
(g6
S'\xee3B\x8dO-s?'
p636
tp637
Rp638
tp639
sS'GGt'
p640
(F1.4543061494299998
g2
(g6
S'\xd3\xeb\x00:\x86\xc1c@'
p641
tp642
Rp643
g2
(g6
S'\xee3B\x8dO-s?'
p644
tp645
Rp646
tp647
sS'cAt'
p648
(F1.4543061494299998
g2
(g6
S'\xd3\xeb\x00:\x86\xc1c@'
p649
tp650
Rp651
g2
(g6
S'\xee3B\x8dO-s?'
p652
tp653
Rp654
tp655
sS'GGg'
p656
(F1.4543061494299998
g2
(g6
S'\xd3\xeb\x00:\x86\xc1c@'
p657
tp658
Rp659
g2
(g6
S'\xee3B\x8dO-s?'
p660
tp661
Rp662
tp663
sS'CTG'
p664
(F1.4543061494299998
g2
(g6
S'\xd3\xeb\x00:\x86\xc1c@'
p665
tp666
Rp667
g2
(g6
S'\xee3B\x8dO-s?'
p668
tp669
Rp670
tp671
sS'GGa'
p672
(F1.4543061494299998
g2
(g6
S'\xd3\xeb\x00:\x86\xc1c@'
p673
tp674
Rp675
g2
(g6
S'\xee3B\x8dO-s?'
p676
tp677
Rp678
tp679
sS'CTA'
p680
(F1.4543061494299998
g2
(g6
S'\xd3\xeb\x00:\x86\xc1c@'
p681
tp682
Rp683
g2
(g6
S'\xee3B\x8dO-s?'
p684
tp685
Rp686
tp687
sS'GGc'
p688
(F1.4543061494299998
g2
(g6
S'\xd3\xeb\x00:\x86\xc1c@'
p689
tp690
Rp691
g2
(g6
S'\xee3B\x8dO-s?'
p692
tp693
Rp694
tp695
sS'CTC'
p696
(F1.4543061494299998
g2
(g6
S'\xd3\xeb\x00:\x86\xc1c@'
p697
tp698
Rp699
g2
(g6
S'\xee3B\x8dO-s?'
p700
tp701
Rp702
tp703
sS'cAc'
p704
(F1.4543061494299998
g2
(g6
S'\xd3\xeb\x00:\x86\xc1c@'
p705
tp706
Rp707
g2
(g6
S'\xee3B\x8dO-s?'
p708
tp709
Rp710
tp711
sS'cAa'
p712
(F1.4543061494299998
g2
(g6
S'\xd3\xeb\x00:\x86\xc1c@'
p713
tp714
Rp715
g2
(g6
S'\xee3B\x8dO-s?'
p716
tp717
Rp718
tp719
sS'cAg'
p720
(F1.4543061494299998
g2
(g6
S'\xd3\xeb\x00:\x86\xc1c@'
p721
tp722
Rp723
g2
(g6
S'\xee3B\x8dO-s?'
p724
tp725
Rp726
tp727
sS'CTt'
p728
(F1.4543061494299998
g2
(g6
S'\xd3\xeb\x00:\x86\xc1c@'
p729
tp730
Rp731
g2
(g6
S'\xee3B\x8dO-s?'
p732
tp733
Rp734
tp735
sS'GGT'
p736
(F1.4543061494299998
g2
(g6
S'\xd3\xeb\x00:\x86\xc1c@'
p737
tp738
Rp739
g2
(g6
S'\xee3B\x8dO-s?'
p740
tp741
Rp742
tp743
sS'cAT'
p744
(F1.4543061494299998
g2
(g6
S'\xd3\xeb\x00:\x86\xc1c@'
p745
tp746
Rp747
g2
(g6
S'\xee3B\x8dO-s?'
p748
tp749
Rp750
tp751
sS'GGG'
p752
(F1.4543061494299998
g2
(g6
S'\xd3\xeb\x00:\x86\xc1c@'
p753
tp754
Rp755
g2
(g6
S'\xee3B\x8dO-s?'
p756
tp757
Rp758
tp759
sS'CTg'
p760
(F1.4543061494299998
g2
(g6
S'\xd3\xeb\x00:\x86\xc1c@'
p761
tp762
Rp763
g2
(g6
S'\xee3B\x8dO-s?'
p764
tp765
Rp766
tp767
sS'GGA'
p768
(F1.4543061494299998
g2
(g6
S'\xd3\xeb\x00:\x86\xc1c@'
p769
tp770
Rp771
g2
(g6
S'\xee3B\x8dO-s?'
p772
tp773
Rp774
tp775
sS'CTa'
p776
(F1.4543061494299998
g2
(g6
S'\xd3\xeb\x00:\x86\xc1c@'
p777
tp778
Rp779
g2
(g6
S'\xee3B\x8dO-s?'
p780
tp781
Rp782
tp783
sS'GGC'
p784
(F1.4543061494299998
g2
(g6
S'\xd3\xeb\x00:\x86\xc1c@'
p785
tp786
Rp787
g2
(g6
S'\xee3B\x8dO-s?'
p788
tp789
Rp790
tp791
sS'CTc'
p792
(F1.4543061494299998
g2
(g6
S'\xd3\xeb\x00:\x86\xc1c@'
p793
tp794
Rp795
g2
(g6
S'\xee3B\x8dO-s?'
p796
tp797
Rp798
tp799
sS'cAC'
p800
(F1.4543061494299998
g2
(g6
S'\xd3\xeb\x00:\x86\xc1c@'
p801
tp802
Rp803
g2
(g6
S'\xee3B\x8dO-s?'
p804
tp805
Rp806
tp807
sS'cAA'
p808
(F1.4543061494299998
g2
(g6
S'\xd3\xeb\x00:\x86\xc1c@'
p809
tp810
Rp811
g2
(g6
S'\xee3B\x8dO-s?'
p812
tp813
Rp814
tp815
sS'cAG'
p816
(F1.4543061494299998
g2
(g6
S'\xd3\xeb\x00:\x86\xc1c@'
p817
tp818
Rp819
g2
(g6
S'\xee3B\x8dO-s?'
p820
tp821
Rp822
tp823
sS'gGT'
p824
(F1.4543061494299998
g2
(g6
S'\xd3\xeb\x00:\x86\xc1c@'
p825
tp826
Rp827
g2
(g6
S'\xee3B\x8dO-s?'
p828
tp829
Rp830
tp831
sS'gTA'
p832
(F1.4543061494299998
g2
(g6
S'\xd3\xeb\x00:\x86\xc1c@'
p833
tp834
Rp835
g2
(g6
S'\xee3B\x8dO-s?'
p836
tp837
Rp838
tp839
sS'caT'
p840
(F1.4543061494299998
g2
(g6
S'\xd3\xeb\x00:\x86\xc1c@'
p841
tp842
Rp843
g2
(g6
S'\xee3B\x8dO-s?'
p844
tp845
Rp846
tp847
sS'gGG'
p848
(F1.4543061494299998
g2
(g6
S'\xd3\xeb\x00:\x86\xc1c@'
p849
tp850
Rp851
g2
(g6
S'\xee3B\x8dO-s?'
p852
tp853
Rp854
tp855
sS'gGA'
p856
(F1.4543061494299998
g2
(g6
S'\xd3\xeb\x00:\x86\xc1c@'
p857
tp858
Rp859
g2
(g6
S'\xee3B\x8dO-s?'
p860
tp861
Rp862
tp863
sS'gGC'
p864
(F1.4543061494299998
g2
(g6
S'\xd3\xeb\x00:\x86\xc1c@'
p865
tp866
Rp867
g2
(g6
S'\xee3B\x8dO-s?'
p868
tp869
Rp870
tp871
sS'caC'
p872
(F1.4543061494299998
g2
(g6
S'\xd3\xeb\x00:\x86\xc1c@'
p873
tp874
Rp875
g2
(g6
S'\xee3B\x8dO-s?'
p876
tp877
Rp878
tp879
sS'caA'
p880
(F1.4543061494299998
g2
(g6
S'\xd3\xeb\x00:\x86\xc1c@'
p881
tp882
Rp883
g2
(g6
S'\xee3B\x8dO-s?'
p884
tp885
Rp886
tp887
sS'caG'
p888
(F1.4543061494299998
g2
(g6
S'\xd3\xeb\x00:\x86\xc1c@'
p889
tp890
Rp891
g2
(g6
S'\xee3B\x8dO-s?'
p892
tp893
Rp894
tp895
sS'gGt'
p896
(F1.4543061494299998
g2
(g6
S'\xd3\xeb\x00:\x86\xc1c@'
p897
tp898
Rp899
g2
(g6
S'\xee3B\x8dO-s?'
p900
tp901
Rp902
tp903
sS'gTG'
p904
(F1.4543061494299998
g2
(g6
S'\xd3\xeb\x00:\x86\xc1c@'
p905
tp906
Rp907
g2
(g6
S'\xee3B\x8dO-s?'
p908
tp909
Rp910
tp911
sS'cat'
p912
(F1.4543061494299998
g2
(g6
S'\xd3\xeb\x00:\x86\xc1c@'
p913
tp914
Rp915
g2
(g6
S'\xee3B\x8dO-s?'
p916
tp917
Rp918
tp919
sS'gGg'
p920
(F1.4543061494299998
g2
(g6
S'\xd3\xeb\x00:\x86\xc1c@'
p921
tp922
Rp923
g2
(g6
S'\xee3B\x8dO-s?'
p924
tp925
Rp926
tp927
sS'gGa'
p928
(F1.4543061494299998
g2
(g6
S'\xd3\xeb\x00:\x86\xc1c@'
p929
tp930
Rp931
g2
(g6
S'\xee3B\x8dO-s?'
p932
tp933
Rp934
tp935
sS'gGc'
p936
(F1.4543061494299998
g2
(g6
S'\xd3\xeb\x00:\x86\xc1c@'
p937
tp938
Rp939
g2
(g6
S'\xee3B\x8dO-s?'
p940
tp941
Rp942
tp943
sS'cac'
p944
(F1.4543061494299998
g2
(g6
S'\xd3\xeb\x00:\x86\xc1c@'
p945
tp946
Rp947
g2
(g6
S'\xee3B\x8dO-s?'
p948
tp949
Rp950
tp951
sS'caa'
p952
(F1.4543061494299998
g2
(g6
S'\xd3\xeb\x00:\x86\xc1c@'
p953
tp954
Rp955
g2
(g6
S'\xee3B\x8dO-s?'
p956
tp957
Rp958
tp959
sS'cag'
p960
(F1.4543061494299998
g2
(g6
S'\xd3\xeb\x00:\x86\xc1c@'
p961
tp962
Rp963
g2
(g6
S'\xee3B\x8dO-s?'
p964
tp965
Rp966
tp967
sS'taa'
p968
(F1.4543061494299998
g2
(g6
S'\xd3\xeb\x00:\x86\xc1c@'
p969
tp970
Rp971
g2
(g6
S'\xee3B\x8dO-s?'
p972
tp973
Rp974
tp975
sS'gcA'
p976
(F1.4543061494299998
g2
(g6
S'\xd3\xeb\x00:\x86\xc1c@'
p977
tp978
Rp979
g2
(g6
S'\xee3B\x8dO-s?'
p980
tp981
Rp982
tp983
sS'GgT'
p984
(F1.4543061494299998
g2
(g6
S'\xd3\xeb\x00:\x86\xc1c@'
p985
tp986
Rp987
g2
(g6
S'\xee3B\x8dO-s?'
p988
tp989
Rp990
tp991
sS'gcC'
p992
(F1.4543061494299998
g2
(g6
S'\xd3\xeb\x00:\x86\xc1c@'
p993
tp994
Rp995
g2
(g6
S'\xee3B\x8dO-s?'
p996
tp997
Rp998
tp999
sS'gcG'
p1000
(F1.4543061494299998
g2
(g6
S'\xd3\xeb\x00:\x86\xc1c@'
p1001
tp1002
Rp1003
g2
(g6
S'\xee3B\x8dO-s?'
p1004
tp1005
Rp1006
tp1007
sS'CAT'
p1008
(F1.4543061494299998
g2
(g6
S'\xd3\xeb\x00:\x86\xc1c@'
p1009
tp1010
Rp1011
g2
(g6
S'\xee3B\x8dO-s?'
p1012
tp1013
Rp1014
tp1015
sS'GgG'
p1016
(F1.4543061494299998
g2
(g6
S'\xd3\xeb\x00:\x86\xc1c@'
p1017
tp1018
Rp1019
g2
(g6
S'\xee3B\x8dO-s?'
p1020
tp1021
Rp1022
tp1023
sS'tag'
p1024
(F1.4543061494299998
g2
(g6
S'\xd3\xeb\x00:\x86\xc1c@'
p1025
tp1026
Rp1027
g2
(g6
S'\xee3B\x8dO-s?'
p1028
tp1029
Rp1030
tp1031
sS'GgA'
p1032
(F1.4543061494299998
g2
(g6
S'\xd3\xeb\x00:\x86\xc1c@'
p1033
tp1034
Rp1035
g2
(g6
S'\xee3B\x8dO-s?'
p1036
tp1037
Rp1038
tp1039
sS'gcT'
p1040
(F1.4543061494299998
g2
(g6
S'\xd3\xeb\x00:\x86\xc1c@'
p1041
tp1042
Rp1043
g2
(g6
S'\xee3B\x8dO-s?'
p1044
tp1045
Rp1046
tp1047
sS'GgC'
p1048
(F1.4543061494299998
g2
(g6
S'\xd3\xeb\x00:\x86\xc1c@'
p1049
tp1050
Rp1051
g2
(g6
S'\xee3B\x8dO-s?'
p1052
tp1053
Rp1054
tp1055
sS'tac'
p1056
(F1.4543061494299998
g2
(g6
S'\xd3\xeb\x00:\x86\xc1c@'
p1057
tp1058
Rp1059
g2
(g6
S'\xee3B\x8dO-s?'
p1060
tp1061
Rp1062
tp1063
sS'CAC'
p1064
(F1.4543061494299998
g2
(g6
S'\xd3\xeb\x00:\x86\xc1c@'
p1065
tp1066
Rp1067
g2
(g6
S'\xee3B\x8dO-s?'
p1068
tp1069
Rp1070
tp1071
sS'CAA'
p1072
(F1.4543061494299998
g2
(g6
S'\xd3\xeb\x00:\x86\xc1c@'
p1073
tp1074
Rp1075
g2
(g6
S'\xee3B\x8dO-s?'
p1076
tp1077
Rp1078
tp1079
sS'CAG'
p1080
(F1.4543061494299998
g2
(g6
S'\xd3\xeb\x00:\x86\xc1c@'
p1081
tp1082
Rp1083
g2
(g6
S'\xee3B\x8dO-s?'
p1084
tp1085
Rp1086
tp1087
sS'gca'
p1088
(F1.4543061494299998
g2
(g6
S'\xd3\xeb\x00:\x86\xc1c@'
p1089
tp1090
Rp1091
g2
(g6
S'\xee3B\x8dO-s?'
p1092
tp1093
Rp1094
tp1095
sS'Ggt'
p1096
(F1.4543061494299998
g2
(g6
S'\xd3\xeb\x00:\x86\xc1c@'
p1097
tp1098
Rp1099
g2
(g6
S'\xee3B\x8dO-s?'
p1100
tp1101
Rp1102
tp1103
sS'gcc'
p1104
(F1.4543061494299998
g2
(g6
S'\xd3\xeb\x00:\x86\xc1c@'
p1105
tp1106
Rp1107
g2
(g6
S'\xee3B\x8dO-s?'
p1108
tp1109
Rp1110
tp1111
sS'gcg'
p1112
(F1.4543061494299998
g2
(g6
S'\xd3\xeb\x00:\x86\xc1c@'
p1113
tp1114
Rp1115
g2
(g6
S'\xee3B\x8dO-s?'
p1116
tp1117
Rp1118
tp1119
sS'cCa'
p1120
(F1.4543061494299998
g2
(g6
S'\xd3\xeb\x00:\x86\xc1c@'
p1121
tp1122
Rp1123
g2
(g6
S'\xee3B\x8dO-s?'
p1124
tp1125
Rp1126
tp1127
sS'CAt'
p1128
(F1.4543061494299998
g2
(g6
S'\xd3\xeb\x00:\x86\xc1c@'
p1129
tp1130
Rp1131
g2
(g6
S'\xee3B\x8dO-s?'
p1132
tp1133
Rp1134
tp1135
sS'Ggg'
p1136
(F1.4543061494299998
g2
(g6
S'\xd3\xeb\x00:\x86\xc1c@'
p1137
tp1138
Rp1139
g2
(g6
S'\xee3B\x8dO-s?'
p1140
tp1141
Rp1142
tp1143
sS'taG'
p1144
(F1.4543061494299998
g2
(g6
S'\xd3\xeb\x00:\x86\xc1c@'
p1145
tp1146
Rp1147
g2
(g6
S'\xee3B\x8dO-s?'
p1148
tp1149
Rp1150
tp1151
sS'Gga'
p1152
(F1.4543061494299998
g2
(g6
S'\xd3\xeb\x00:\x86\xc1c@'
p1153
tp1154
Rp1155
g2
(g6
S'\xee3B\x8dO-s?'
p1156
tp1157
Rp1158
tp1159
sS'GAa'
p1160
(F1.4543061494299998
g2
(g6
S'\xd3\xeb\x00:\x86\xc1c@'
p1161
tp1162
Rp1163
g2
(g6
S'\xee3B\x8dO-s?'
p1164
tp1165
Rp1166
tp1167
sS'Ggc'
p1168
(F1.4543061494299998
g2
(g6
S'\xd3\xeb\x00:\x86\xc1c@'
p1169
tp1170
Rp1171
g2
(g6
S'\xee3B\x8dO-s?'
p1172
tp1173
Rp1174
tp1175
sS'taC'
p1176
(F1.4543061494299998
g2
(g6
S'\xd3\xeb\x00:\x86\xc1c@'
p1177
tp1178
Rp1179
g2
(g6
S'\xee3B\x8dO-s?'
p1180
tp1181
Rp1182
tp1183
sS'CAc'
p1184
(F1.4543061494299998
g2
(g6
S'\xd3\xeb\x00:\x86\xc1c@'
p1185
tp1186
Rp1187
g2
(g6
S'\xee3B\x8dO-s?'
p1188
tp1189
Rp1190
tp1191
sS'CAa'
p1192
(F1.4543061494299998
g2
(g6
S'\xd3\xeb\x00:\x86\xc1c@'
p1193
tp1194
Rp1195
g2
(g6
S'\xee3B\x8dO-s?'
p1196
tp1197
Rp1198
tp1199
sS'CAg'
p1200
(F1.4543061494299998
g2
(g6
S'\xd3\xeb\x00:\x86\xc1c@'
p1201
tp1202
Rp1203
g2
(g6
S'\xee3B\x8dO-s?'
p1204
tp1205
Rp1206
tp1207
sS'Ctt'
p1208
(F1.4543061494299998
g2
(g6
S'\xd3\xeb\x00:\x86\xc1c@'
p1209
tp1210
Rp1211
g2
(g6
S'\xee3B\x8dO-s?'
p1212
tp1213
Rp1214
tp1215
sS'taT'
p1216
(F1.4543061494299998
g2
(g6
S'\xd3\xeb\x00:\x86\xc1c@'
p1217
tp1218
Rp1219
g2
(g6
S'\xee3B\x8dO-s?'
p1220
tp1221
Rp1222
tp1223
sS'Ctg'
p1224
(F1.4543061494299998
g2
(g6
S'\xd3\xeb\x00:\x86\xc1c@'
p1225
tp1226
Rp1227
g2
(g6
S'\xee3B\x8dO-s?'
p1228
tp1229
Rp1230
tp1231
sS'Cta'
p1232
(F1.4543061494299998
g2
(g6
S'\xd3\xeb\x00:\x86\xc1c@'
p1233
tp1234
Rp1235
g2
(g6
S'\xee3B\x8dO-s?'
p1236
tp1237
Rp1238
tp1239
sS'Ctc'
p1240
(F1.4543061494299998
g2
(g6
S'\xd3\xeb\x00:\x86\xc1c@'
p1241
tp1242
Rp1243
g2
(g6
S'\xee3B\x8dO-s?'
p1244
tp1245
Rp1246
tp1247
sS'CtT'
p1248
(F1.4543061494299998
g2
(g6
S'\xd3\xeb\x00:\x86\xc1c@'
p1249
tp1250
Rp1251
g2
(g6
S'\xee3B\x8dO-s?'
p1252
tp1253
Rp1254
tp1255
sS'CtG'
p1256
(F1.4543061494299998
g2
(g6
S'\xd3\xeb\x00:\x86\xc1c@'
p1257
tp1258
Rp1259
g2
(g6
S'\xee3B\x8dO-s?'
p1260
tp1261
Rp1262
tp1263
sS'CtA'
p1264
(F1.4543061494299998
g2
(g6
S'\xd3\xeb\x00:\x86\xc1c@'
p1265
tp1266
Rp1267
g2
(g6
S'\xee3B\x8dO-s?'
p1268
tp1269
Rp1270
tp1271
sS'CtC'
p1272
(F1.4543061494299998
g2
(g6
S'\xd3\xeb\x00:\x86\xc1c@'
p1273
tp1274
Rp1275
g2
(g6
S'\xee3B\x8dO-s?'
p1276
tp1277
Rp1278
tp1279
sS'gtA'
p1280
(F1.4543061494299998
g2
(g6
S'\xd3\xeb\x00:\x86\xc1c@'
p1281
tp1282
Rp1283
g2
(g6
S'\xee3B\x8dO-s?'
p1284
tp1285
Rp1286
tp1287
sS'gtC'
p1288
(F1.4543061494299998
g2
(g6
S'\xd3\xeb\x00:\x86\xc1c@'
p1289
tp1290
Rp1291
g2
(g6
S'\xee3B\x8dO-s?'
p1292
tp1293
Rp1294
tp1295
sS'Gta'
p1296
(F1.4543061494299998
g2
(g6
S'\xd3\xeb\x00:\x86\xc1c@'
p1297
tp1298
Rp1299
g2
(g6
S'\xee3B\x8dO-s?'
p1300
tp1301
Rp1302
tp1303
sS'ttt'
p1304
(F1.4543061494299998
g2
(g6
S'\xd3\xeb\x00:\x86\xc1c@'
p1305
tp1306
Rp1307
g2
(g6
S'\xee3B\x8dO-s?'
p1308
tp1309
Rp1310
tp1311
sS'gtT'
p1312
(F1.4543061494299998
g2
(g6
S'\xd3\xeb\x00:\x86\xc1c@'
p1313
tp1314
Rp1315
g2
(g6
S'\xee3B\x8dO-s?'
p1316
tp1317
Rp1318
tp1319
sS'ttc'
p1320
(F1.4543061494299998
g2
(g6
S'\xd3\xeb\x00:\x86\xc1c@'
p1321
tp1322
Rp1323
g2
(g6
S'\xee3B\x8dO-s?'
p1324
tp1325
Rp1326
tp1327
sS'tta'
p1328
(F1.4543061494299998
g2
(g6
S'\xd3\xeb\x00:\x86\xc1c@'
p1329
tp1330
Rp1331
g2
(g6
S'\xee3B\x8dO-s?'
p1332
tp1333
Rp1334
tp1335
sS'ttg'
p1336
(F1.4543061494299998
g2
(g6
S'\xd3\xeb\x00:\x86\xc1c@'
p1337
tp1338
Rp1339
g2
(g6
S'\xee3B\x8dO-s?'
p1340
tp1341
Rp1342
tp1343
sS'gta'
p1344
(F1.4543061494299998
g2
(g6
S'\xd3\xeb\x00:\x86\xc1c@'
p1345
tp1346
Rp1347
g2
(g6
S'\xee3B\x8dO-s?'
p1348
tp1349
Rp1350
tp1351
sS'gtc'
p1352
(F1.4543061494299998
g2
(g6
S'\xd3\xeb\x00:\x86\xc1c@'
p1353
tp1354
Rp1355
g2
(g6
S'\xee3B\x8dO-s?'
p1356
tp1357
Rp1358
tp1359
sS'gtg'
p1360
(F1.4543061494299998
g2
(g6
S'\xd3\xeb\x00:\x86\xc1c@'
p1361
tp1362
Rp1363
g2
(g6
S'\xee3B\x8dO-s?'
p1364
tp1365
Rp1366
tp1367
sS'ATA'
p1368
(F1.4543061494299998
g2
(g6
S'\xd3\xeb\x00:\x86\xc1c@'
p1369
tp1370
Rp1371
g2
(g6
S'\xee3B\x8dO-s?'
p1372
tp1373
Rp1374
tp1375
sS'ttT'
p1376
(F1.4543061494299998
g2
(g6
S'\xd3\xeb\x00:\x86\xc1c@'
p1377
tp1378
Rp1379
g2
(g6
S'\xee3B\x8dO-s?'
p1380
tp1381
Rp1382
tp1383
sS'gtt'
p1384
(F1.4543061494299998
g2
(g6
S'\xd3\xeb\x00:\x86\xc1c@'
p1385
tp1386
Rp1387
g2
(g6
S'\xee3B\x8dO-s?'
p1388
tp1389
Rp1390
tp1391
sS'ttC'
p1392
(F1.4543061494299998
g2
(g6
S'\xd3\xeb\x00:\x86\xc1c@'
p1393
tp1394
Rp1395
g2
(g6
S'\xee3B\x8dO-s?'
p1396
tp1397
Rp1398
tp1399
sS'ttA'
p1400
(F1.4543061494299998
g2
(g6
S'\xd3\xeb\x00:\x86\xc1c@'
p1401
tp1402
Rp1403
g2
(g6
S'\xee3B\x8dO-s?'
p1404
tp1405
Rp1406
tp1407
sS'ttG'
p1408
(F1.4543061494299998
g2
(g6
S'\xd3\xeb\x00:\x86\xc1c@'
p1409
tp1410
Rp1411
g2
(g6
S'\xee3B\x8dO-s?'
p1412
tp1413
Rp1414
tp1415
sS'gct'
p1416
(F1.4543061494299998
g2
(g6
S'\xd3\xeb\x00:\x86\xc1c@'
p1417
tp1418
Rp1419
g2
(g6
S'\xee3B\x8dO-s?'
p1420
tp1421
Rp1422
tp1423
sS'gCa'
p1424
(F1.4543061494299998
g2
(g6
S'\xd3\xeb\x00:\x86\xc1c@'
p1425
tp1426
Rp1427
g2
(g6
S'\xee3B\x8dO-s?'
p1428
tp1429
Rp1430
tp1431
sS'gCc'
p1432
(F1.4543061494299998
g2
(g6
S'\xd3\xeb\x00:\x86\xc1c@'
p1433
tp1434
Rp1435
g2
(g6
S'\xee3B\x8dO-s?'
p1436
tp1437
Rp1438
tp1439
sS'gCg'
p1440
(F1.4543061494299998
g2
(g6
S'\xd3\xeb\x00:\x86\xc1c@'
p1441
tp1442
Rp1443
g2
(g6
S'\xee3B\x8dO-s?'
p1444
tp1445
Rp1446
tp1447
sS'Cat'
p1448
(F1.4543061494299998
g2
(g6
S'\xd3\xeb\x00:\x86\xc1c@'
p1449
tp1450
Rp1451
g2
(g6
S'\xee3B\x8dO-s?'
p1452
tp1453
Rp1454
tp1455
sS'gCt'
p1456
(F1.4543061494299998
g2
(g6
S'\xd3\xeb\x00:\x86\xc1c@'
p1457
tp1458
Rp1459
g2
(g6
S'\xee3B\x8dO-s?'
p1460
tp1461
Rp1462
tp1463
sS'Cac'
p1464
(F1.4543061494299998
g2
(g6
S'\xd3\xeb\x00:\x86\xc1c@'
p1465
tp1466
Rp1467
g2
(g6
S'\xee3B\x8dO-s?'
p1468
tp1469
Rp1470
tp1471
sS'Caa'
p1472
(F1.4543061494299998
g2
(g6
S'\xd3\xeb\x00:\x86\xc1c@'
p1473
tp1474
Rp1475
g2
(g6
S'\xee3B\x8dO-s?'
p1476
tp1477
Rp1478
tp1479
sS'Cag'
p1480
(F1.4543061494299998
g2
(g6
S'\xd3\xeb\x00:\x86\xc1c@'
p1481
tp1482
Rp1483
g2
(g6
S'\xee3B\x8dO-s?'
p1484
tp1485
Rp1486
tp1487
sS'gCA'
p1488
(F1.4543061494299998
g2
(g6
S'\xd3\xeb\x00:\x86\xc1c@'
p1489
tp1490
Rp1491
g2
(g6
S'\xee3B\x8dO-s?'
p1492
tp1493
Rp1494
tp1495
sS'gCC'
p1496
(F1.4543061494299998
g2
(g6
S'\xd3\xeb\x00:\x86\xc1c@'
p1497
tp1498
Rp1499
g2
(g6
S'\xee3B\x8dO-s?'
p1500
tp1501
Rp1502
tp1503
sS'gCG'
p1504
(F1.4543061494299998
g2
(g6
S'\xd3\xeb\x00:\x86\xc1c@'
p1505
tp1506
Rp1507
g2
(g6
S'\xee3B\x8dO-s?'
p1508
tp1509
Rp1510
tp1511
sS'GAC'
p1512
(F1.4543061494299998
g2
(g6
S'\xd3\xeb\x00:\x86\xc1c@'
p1513
tp1514
Rp1515
g2
(g6
S'\xee3B\x8dO-s?'
p1516
tp1517
Rp1518
tp1519
sS'CaT'
p1520
(F1.4543061494299998
g2
(g6
S'\xd3\xeb\x00:\x86\xc1c@'
p1521
tp1522
Rp1523
g2
(g6
S'\xee3B\x8dO-s?'
p1524
tp1525
Rp1526
tp1527
sS'GAA'
p1528
(F1.4543061494299998
g2
(g6
S'\xd3\xeb\x00:\x86\xc1c@'
p1529
tp1530
Rp1531
g2
(g6
S'\xee3B\x8dO-s?'
p1532
tp1533
Rp1534
tp1535
sS'CaC'
p1536
(F1.4543061494299998
g2
(g6
S'\xd3\xeb\x00:\x86\xc1c@'
p1537
tp1538
Rp1539
g2
(g6
S'\xee3B\x8dO-s?'
p1540
tp1541
Rp1542
tp1543
sS'CaA'
p1544
(F1.4543061494299998
g2
(g6
S'\xd3\xeb\x00:\x86\xc1c@'
p1545
tp1546
Rp1547
g2
(g6
S'\xee3B\x8dO-s?'
p1548
tp1549
Rp1550
tp1551
sS'CaG'
p1552
(F1.4543061494299998
g2
(g6
S'\xd3\xeb\x00:\x86\xc1c@'
p1553
tp1554
Rp1555
g2
(g6
S'\xee3B\x8dO-s?'
p1556
tp1557
Rp1558
tp1559
sS'Gca'
p1560
(F1.4543061494299998
g2
(g6
S'\xd3\xeb\x00:\x86\xc1c@'
p1561
tp1562
Rp1563
g2
(g6
S'\xee3B\x8dO-s?'
p1564
tp1565
Rp1566
tp1567
sS'aTg'
p1568
(F1.4543061494299998
g2
(g6
S'\xd3\xeb\x00:\x86\xc1c@'
p1569
tp1570
Rp1571
g2
(g6
S'\xee3B\x8dO-s?'
p1572
tp1573
Rp1574
tp1575
sS'Gcc'
p1576
(F1.4543061494299998
g2
(g6
S'\xd3\xeb\x00:\x86\xc1c@'
p1577
tp1578
Rp1579
g2
(g6
S'\xee3B\x8dO-s?'
p1580
tp1581
Rp1582
tp1583
sS'aTc'
p1584
(F1.4543061494299998
g2
(g6
S'\xd3\xeb\x00:\x86\xc1c@'
p1585
tp1586
Rp1587
g2
(g6
S'\xee3B\x8dO-s?'
p1588
tp1589
Rp1590
tp1591
sS'Gcg'
p1592
(F1.4543061494299998
g2
(g6
S'\xd3\xeb\x00:\x86\xc1c@'
p1593
tp1594
Rp1595
g2
(g6
S'\xee3B\x8dO-s?'
p1596
tp1597
Rp1598
tp1599
sS'aTa'
p1600
(F1.4543061494299998
g2
(g6
S'\xd3\xeb\x00:\x86\xc1c@'
p1601
tp1602
Rp1603
g2
(g6
S'\xee3B\x8dO-s?'
p1604
tp1605
Rp1606
tp1607
sS'aTt'
p1608
(F1.4543061494299998
g2
(g6
S'\xd3\xeb\x00:\x86\xc1c@'
p1609
tp1610
Rp1611
g2
(g6
S'\xee3B\x8dO-s?'
p1612
tp1613
Rp1614
tp1615
sS'Gct'
p1616
(F1.4543061494299998
g2
(g6
S'\xd3\xeb\x00:\x86\xc1c@'
p1617
tp1618
Rp1619
g2
(g6
S'\xee3B\x8dO-s?'
p1620
tp1621
Rp1622
tp1623
sS'GcA'
p1624
(F1.4543061494299998
g2
(g6
S'\xd3\xeb\x00:\x86\xc1c@'
p1625
tp1626
Rp1627
g2
(g6
S'\xee3B\x8dO-s?'
p1628
tp1629
Rp1630
tp1631
sS'aTG'
p1632
(F1.4543061494299998
g2
(g6
S'\xd3\xeb\x00:\x86\xc1c@'
p1633
tp1634
Rp1635
g2
(g6
S'\xee3B\x8dO-s?'
p1636
tp1637
Rp1638
tp1639
sS'GcC'
p1640
(F1.4543061494299998
g2
(g6
S'\xd3\xeb\x00:\x86\xc1c@'
p1641
tp1642
Rp1643
g2
(g6
S'\xee3B\x8dO-s?'
p1644
tp1645
Rp1646
tp1647
sS'aTC'
p1648
(F1.4543061494299998
g2
(g6
S'\xd3\xeb\x00:\x86\xc1c@'
p1649
tp1650
Rp1651
g2
(g6
S'\xee3B\x8dO-s?'
p1652
tp1653
Rp1654
tp1655
sS'GcG'
p1656
(F1.4543061494299998
g2
(g6
S'\xd3\xeb\x00:\x86\xc1c@'
p1657
tp1658
Rp1659
g2
(g6
S'\xee3B\x8dO-s?'
p1660
tp1661
Rp1662
tp1663
sS'aTA'
p1664
(F1.4543061494299998
g2
(g6
S'\xd3\xeb\x00:\x86\xc1c@'
p1665
tp1666
Rp1667
g2
(g6
S'\xee3B\x8dO-s?'
p1668
tp1669
Rp1670
tp1671
sS'aTT'
p1672
(F1.4543061494299998
g2
(g6
S'\xd3\xeb\x00:\x86\xc1c@'
p1673
tp1674
Rp1675
g2
(g6
S'\xee3B\x8dO-s?'
p1676
tp1677
Rp1678
tp1679
sS'GcT'
p1680
(F1.4543061494299998
g2
(g6
S'\xd3\xeb\x00:\x86\xc1c@'
p1681
tp1682
Rp1683
g2
(g6
S'\xee3B\x8dO-s?'
p1684
tp1685
Rp1686
tp1687
sS'GCA'
p1688
(F1.4543061494299998
g2
(g6
S'\xd3\xeb\x00:\x86\xc1c@'
p1689
tp1690
Rp1691
g2
(g6
S'\xee3B\x8dO-s?'
p1692
tp1693
Rp1694
tp1695
sS'atG'
p1696
(F1.4543061494299998
g2
(g6
S'\xd3\xeb\x00:\x86\xc1c@'
p1697
tp1698
Rp1699
g2
(g6
S'\xee3B\x8dO-s?'
p1700
tp1701
Rp1702
tp1703
sS'GCC'
p1704
(F1.4543061494299998
g2
(g6
S'\xd3\xeb\x00:\x86\xc1c@'
p1705
tp1706
Rp1707
g2
(g6
S'\xee3B\x8dO-s?'
p1708
tp1709
Rp1710
tp1711
sS'gTc'
p1712
(F1.4543061494299998
g2
(g6
S'\xd3\xeb\x00:\x86\xc1c@'
p1713
tp1714
Rp1715
g2
(g6
S'\xee3B\x8dO-s?'
p1716
tp1717
Rp1718
tp1719
sS'atC'
p1720
(F1.4543061494299998
g2
(g6
S'\xd3\xeb\x00:\x86\xc1c@'
p1721
tp1722
Rp1723
g2
(g6
S'\xee3B\x8dO-s?'
p1724
tp1725
Rp1726
tp1727
sS'GCG'
p1728
(F1.4543061494299998
g2
(g6
S'\xd3\xeb\x00:\x86\xc1c@'
p1729
tp1730
Rp1731
g2
(g6
S'\xee3B\x8dO-s?'
p1732
tp1733
Rp1734
tp1735
sS'atA'
p1736
(F1.4543061494299998
g2
(g6
S'\xd3\xeb\x00:\x86\xc1c@'
p1737
tp1738
Rp1739
g2
(g6
S'\xee3B\x8dO-s?'
p1740
tp1741
Rp1742
tp1743
sS'atT'
p1744
(F1.4543061494299998
g2
(g6
S'\xd3\xeb\x00:\x86\xc1c@'
p1745
tp1746
Rp1747
g2
(g6
S'\xee3B\x8dO-s?'
p1748
tp1749
Rp1750
tp1751
sS'gTt'
p1752
(F1.4543061494299998
g2
(g6
S'\xd3\xeb\x00:\x86\xc1c@'
p1753
tp1754
Rp1755
g2
(g6
S'\xee3B\x8dO-s?'
p1756
tp1757
Rp1758
tp1759
sS'GCT'
p1760
(F1.4543061494299998
g2
(g6
S'\xd3\xeb\x00:\x86\xc1c@'
p1761
tp1762
Rp1763
g2
(g6
S'\xee3B\x8dO-s?'
p1764
tp1765
Rp1766
tp1767
sS'GCa'
p1768
(F1.4543061494299998
g2
(g6
S'\xd3\xeb\x00:\x86\xc1c@'
p1769
tp1770
Rp1771
g2
(g6
S'\xee3B\x8dO-s?'
p1772
tp1773
Rp1774
tp1775
sS'atg'
p1776
(F1.4543061494299998
g2
(g6
S'\xd3\xeb\x00:\x86\xc1c@'
p1777
tp1778
Rp1779
g2
(g6
S'\xee3B\x8dO-s?'
p1780
tp1781
Rp1782
tp1783
sS'GCc'
p1784
(F1.4543061494299998
g2
(g6
S'\xd3\xeb\x00:\x86\xc1c@'
p1785
tp1786
Rp1787
g2
(g6
S'\xee3B\x8dO-s?'
p1788
tp1789
Rp1790
tp1791
sS'gTC'
p1792
(F1.4543061494299998
g2
(g6
S'\xd3\xeb\x00:\x86\xc1c@'
p1793
tp1794
Rp1795
g2
(g6
S'\xee3B\x8dO-s?'
p1796
tp1797
Rp1798
tp1799
sS'atc'
p1800
(F1.4543061494299998
g2
(g6
S'\xd3\xeb\x00:\x86\xc1c@'
p1801
tp1802
Rp1803
g2
(g6
S'\xee3B\x8dO-s?'
p1804
tp1805
Rp1806
tp1807
sS'GCg'
p1808
(F1.4543061494299998
g2
(g6
S'\xd3\xeb\x00:\x86\xc1c@'
p1809
tp1810
Rp1811
g2
(g6
S'\xee3B\x8dO-s?'
p1812
tp1813
Rp1814
tp1815
sS'ata'
p1816
(F1.4543061494299998
g2
(g6
S'\xd3\xeb\x00:\x86\xc1c@'
p1817
tp1818
Rp1819
g2
(g6
S'\xee3B\x8dO-s?'
p1820
tp1821
Rp1822
tp1823
sS'ATa'
p1824
(F1.4543061494299998
g2
(g6
S'\xd3\xeb\x00:\x86\xc1c@'
p1825
tp1826
Rp1827
g2
(g6
S'\xee3B\x8dO-s?'
p1828
tp1829
Rp1830
tp1831
sS'att'
p1832
(F1.4543061494299998
g2
(g6
S'\xd3\xeb\x00:\x86\xc1c@'
p1833
tp1834
Rp1835
g2
(g6
S'\xee3B\x8dO-s?'
p1836
tp1837
Rp1838
tp1839
sS'tAG'
p1840
(F1.4543061494299998
g2
(g6
S'\xd3\xeb\x00:\x86\xc1c@'
p1841
tp1842
Rp1843
g2
(g6
S'\xee3B\x8dO-s?'
p1844
tp1845
Rp1846
tp1847
sS'gTT'
p1848
(F1.4543061494299998
g2
(g6
S'\xd3\xeb\x00:\x86\xc1c@'
p1849
tp1850
Rp1851
g2
(g6
S'\xee3B\x8dO-s?'
p1852
tp1853
Rp1854
tp1855
sS'GCt'
p1856
(F1.4543061494299998
g2
(g6
S'\xd3\xeb\x00:\x86\xc1c@'
p1857
tp1858
Rp1859
g2
(g6
S'\xee3B\x8dO-s?'
p1860
tp1861
Rp1862
tp1863
sS'tAA'
p1864
(F1.4543061494299998
g2
(g6
S'\xd3\xeb\x00:\x86\xc1c@'
p1865
tp1866
Rp1867
g2
(g6
S'\xee3B\x8dO-s?'
p1868
tp1869
Rp1870
tp1871
sS'ATG'
p1872
(F1.4543061494299998
g2
(g6
S'\xd3\xeb\x00:\x86\xc1c@'
p1873
tp1874
Rp1875
g2
(g6
S'\xee3B\x8dO-s?'
p1876
tp1877
Rp1878
tp1879
sS'aAg'
p1880
(F1.4543061494299998
g2
(g6
S'\xd3\xeb\x00:\x86\xc1c@'
p1881
tp1882
Rp1883
g2
(g6
S'\xee3B\x8dO-s?'
p1884
tp1885
Rp1886
tp1887
sS'Gtc'
p1888
(F1.4543061494299998
g2
(g6
S'\xd3\xeb\x00:\x86\xc1c@'
p1889
tp1890
Rp1891
g2
(g6
S'\xee3B\x8dO-s?'
p1892
tp1893
Rp1894
tp1895
sS'aAa'
p1896
(F1.4543061494299998
g2
(g6
S'\xd3\xeb\x00:\x86\xc1c@'
p1897
tp1898
Rp1899
g2
(g6
S'\xee3B\x8dO-s?'
p1900
tp1901
Rp1902
tp1903
sS'ATC'
p1904
(F1.4543061494299998
g2
(g6
S'\xd3\xeb\x00:\x86\xc1c@'
p1905
tp1906
Rp1907
g2
(g6
S'\xee3B\x8dO-s?'
p1908
tp1909
Rp1910
tp1911
sS'aAc'
p1912
(F1.4543061494299998
g2
(g6
S'\xd3\xeb\x00:\x86\xc1c@'
p1913
tp1914
Rp1915
g2
(g6
S'\xee3B\x8dO-s?'
p1916
tp1917
Rp1918
tp1919
sS'Gtg'
p1920
(F1.4543061494299998
g2
(g6
S'\xd3\xeb\x00:\x86\xc1c@'
p1921
tp1922
Rp1923
g2
(g6
S'\xee3B\x8dO-s?'
p1924
tp1925
Rp1926
tp1927
sS'taA'
p1928
(F1.4543061494299998
g2
(g6
S'\xd3\xeb\x00:\x86\xc1c@'
p1929
tp1930
Rp1931
g2
(g6
S'\xee3B\x8dO-s?'
p1932
tp1933
Rp1934
tp1935
sS'tAC'
p1936
(F1.4543061494299998
g2
(g6
S'\xd3\xeb\x00:\x86\xc1c@'
p1937
tp1938
Rp1939
g2
(g6
S'\xee3B\x8dO-s?'
p1940
tp1941
Rp1942
tp1943
sS'aAt'
p1944
(F1.4543061494299998
g2
(g6
S'\xd3\xeb\x00:\x86\xc1c@'
p1945
tp1946
Rp1947
g2
(g6
S'\xee3B\x8dO-s?'
p1948
tp1949
Rp1950
tp1951
sS'ATT'
p1952
(F1.4543061494299998
g2
(g6
S'\xd3\xeb\x00:\x86\xc1c@'
p1953
tp1954
Rp1955
g2
(g6
S'\xee3B\x8dO-s?'
p1956
tp1957
Rp1958
tp1959
sS'Gtt'
p1960
(F1.4543061494299998
g2
(g6
S'\xd3\xeb\x00:\x86\xc1c@'
p1961
tp1962
Rp1963
g2
(g6
S'\xee3B\x8dO-s?'
p1964
tp1965
Rp1966
tp1967
sS'ATg'
p1968
(F1.4543061494299998
g2
(g6
S'\xd3\xeb\x00:\x86\xc1c@'
p1969
tp1970
Rp1971
g2
(g6
S'\xee3B\x8dO-s?'
p1972
tp1973
Rp1974
tp1975
sS'aAG'
p1976
(F1.4543061494299998
g2
(g6
S'\xd3\xeb\x00:\x86\xc1c@'
p1977
tp1978
Rp1979
g2
(g6
S'\xee3B\x8dO-s?'
p1980
tp1981
Rp1982
tp1983
sS'GtC'
p1984
(F1.4543061494299998
g2
(g6
S'\xd3\xeb\x00:\x86\xc1c@'
p1985
tp1986
Rp1987
g2
(g6
S'\xee3B\x8dO-s?'
p1988
tp1989
Rp1990
tp1991
sS'aAA'
p1992
(F1.4543061494299998
g2
(g6
S'\xd3\xeb\x00:\x86\xc1c@'
p1993
tp1994
Rp1995
g2
(g6
S'\xee3B\x8dO-s?'
p1996
tp1997
Rp1998
tp1999
sS'ATc'
p2000
(F1.4543061494299998
g2
(g6
S'\xd3\xeb\x00:\x86\xc1c@'
p2001
tp2002
Rp2003
g2
(g6
S'\xee3B\x8dO-s?'
p2004
tp2005
Rp2006
tp2007
sS'aAC'
p2008
(F1.4543061494299998
g2
(g6
S'\xd3\xeb\x00:\x86\xc1c@'
p2009
tp2010
Rp2011
g2
(g6
S'\xee3B\x8dO-s?'
p2012
tp2013
Rp2014
tp2015
sS'GtG'
p2016
(F1.4543061494299998
g2
(g6
S'\xd3\xeb\x00:\x86\xc1c@'
p2017
tp2018
Rp2019
g2
(g6
S'\xee3B\x8dO-s?'
p2020
tp2021
Rp2022
tp2023
sS'gAC'
p2024
(F1.4543061494299998
g2
(g6
S'\xd3\xeb\x00:\x86\xc1c@'
p2025
tp2026
Rp2027
g2
(g6
S'\xee3B\x8dO-s?'
p2028
tp2029
Rp2030
tp2031
sS'aAT'
p2032
(F1.4543061494299998
g2
(g6
S'\xd3\xeb\x00:\x86\xc1c@'
p2033
tp2034
Rp2035
g2
(g6
S'\xee3B\x8dO-s?'
p2036
tp2037
Rp2038
tp2039
sS'ATt'
p2040
(F1.4543061494299998
g2
(g6
S'\xd3\xeb\x00:\x86\xc1c@'
p2041
tp2042
Rp2043
g2
(g6
S'\xee3B\x8dO-s?'
p2044
tp2045
Rp2046
tp2047
sS'GtT'
p2048
(F1.4543061494299998
g2
(g6
S'\xd3\xeb\x00:\x86\xc1c@'
p2049
tp2050
Rp2051
g2
(g6
S'\xee3B\x8dO-s?'
p2052
tp2053
Rp2054
tp2055
sS'gAA'
p2056
(F1.4543061494299998
g2
(g6
S'\xd3\xeb\x00:\x86\xc1c@'
p2057
tp2058
Rp2059
g2
(g6
S'\xee3B\x8dO-s?'
p2060
tp2061
Rp2062
tp2063
sS'GTA'
p2064
(F1.4543061494299998
g2
(g6
S'\xd3\xeb\x00:\x86\xc1c@'
p2065
tp2066
Rp2067
g2
(g6
S'\xee3B\x8dO-s?'
p2068
tp2069
Rp2070
tp2071
sS'aaG'
p2072
(F1.4543061494299998
g2
(g6
S'\xd3\xeb\x00:\x86\xc1c@'
p2073
tp2074
Rp2075
g2
(g6
S'\xee3B\x8dO-s?'
p2076
tp2077
Rp2078
tp2079
sS'GTC'
p2080
(F1.4543061494299998
g2
(g6
S'\xd3\xeb\x00:\x86\xc1c@'
p2081
tp2082
Rp2083
g2
(g6
S'\xee3B\x8dO-s?'
p2084
tp2085
Rp2086
tp2087
sS'aaA'
p2088
(F1.4543061494299998
g2
(g6
S'\xd3\xeb\x00:\x86\xc1c@'
p2089
tp2090
Rp2091
g2
(g6
S'\xee3B\x8dO-s?'
p2092
tp2093
Rp2094
tp2095
sS'aaC'
p2096
(F1.4543061494299998
g2
(g6
S'\xd3\xeb\x00:\x86\xc1c@'
p2097
tp2098
Rp2099
g2
(g6
S'\xee3B\x8dO-s?'
p2100
tp2101
Rp2102
tp2103
sS'GTG'
p2104
(F1.4543061494299998
g2
(g6
S'\xd3\xeb\x00:\x86\xc1c@'
p2105
tp2106
Rp2107
g2
(g6
S'\xee3B\x8dO-s?'
p2108
tp2109
Rp2110
tp2111
sS'aaT'
p2112
(F1.4543061494299998
g2
(g6
S'\xd3\xeb\x00:\x86\xc1c@'
p2113
tp2114
Rp2115
g2
(g6
S'\xee3B\x8dO-s?'
p2116
tp2117
Rp2118
tp2119
sS'GTT'
p2120
(F1.4543061494299998
g2
(g6
S'\xd3\xeb\x00:\x86\xc1c@'
p2121
tp2122
Rp2123
g2
(g6
S'\xee3B\x8dO-s?'
p2124
tp2125
Rp2126
tp2127
sS'GTa'
p2128
(F1.4543061494299998
g2
(g6
S'\xd3\xeb\x00:\x86\xc1c@'
p2129
tp2130
Rp2131
g2
(g6
S'\xee3B\x8dO-s?'
p2132
tp2133
Rp2134
tp2135
sS'aag'
p2136
(F1.4543061494299998
g2
(g6
S'\xd3\xeb\x00:\x86\xc1c@'
p2137
tp2138
Rp2139
g2
(g6
S'\xee3B\x8dO-s?'
p2140
tp2141
Rp2142
tp2143
sS'GTc'
p2144
(F1.4543061494299998
g2
(g6
S'\xd3\xeb\x00:\x86\xc1c@'
p2145
tp2146
Rp2147
g2
(g6
S'\xee3B\x8dO-s?'
p2148
tp2149
Rp2150
tp2151
sS'aaa'
p2152
(F1.4543061494299998
g2
(g6
S'\xd3\xeb\x00:\x86\xc1c@'
p2153
tp2154
Rp2155
g2
(g6
S'\xee3B\x8dO-s?'
p2156
tp2157
Rp2158
tp2159
sS'aac'
p2160
(F1.4543061494299998
g2
(g6
S'\xd3\xeb\x00:\x86\xc1c@'
p2161
tp2162
Rp2163
g2
(g6
S'\xee3B\x8dO-s?'
p2164
tp2165
Rp2166
tp2167
sS'GTg'
p2168
(F1.4543061494299998
g2
(g6
S'\xd3\xeb\x00:\x86\xc1c@'
p2169
tp2170
Rp2171
g2
(g6
S'\xee3B\x8dO-s?'
p2172
tp2173
Rp2174
tp2175
sS'aat'
p2176
(F1.4543061494299998
g2
(g6
S'\xd3\xeb\x00:\x86\xc1c@'
p2177
tp2178
Rp2179
g2
(g6
S'\xee3B\x8dO-s?'
p2180
tp2181
Rp2182
tp2183
sS'GTt'
p2184
(F1.4543061494299998
g2
(g6
S'\xd3\xeb\x00:\x86\xc1c@'
p2185
tp2186
Rp2187
g2
(g6
S'\xee3B\x8dO-s?'
p2188
tp2189
Rp2190
tp2191
sS'AAG'
p2192
(F1.4543061494299998
g2
(g6
S'\xd3\xeb\x00:\x86\xc1c@'
p2193
tp2194
Rp2195
g2
(g6
S'\xee3B\x8dO-s?'
p2196
tp2197
Rp2198
tp2199
sS'AAA'
p2200
(F1.4543061494299998
g2
(g6
S'\xd3\xeb\x00:\x86\xc1c@'
p2201
tp2202
Rp2203
g2
(g6
S'\xee3B\x8dO-s?'
p2204
tp2205
Rp2206
tp2207
sS'TGt'
p2208
(F1.4543061494299998
g2
(g6
S'\xd3\xeb\x00:\x86\xc1c@'
p2209
tp2210
Rp2211
g2
(g6
S'\xee3B\x8dO-s?'
p2212
tp2213
Rp2214
tp2215
sS'TGc'
p2216
(F1.4543061494299998
g2
(g6
S'\xd3\xeb\x00:\x86\xc1c@'
p2217
tp2218
Rp2219
g2
(g6
S'\xee3B\x8dO-s?'
p2220
tp2221
Rp2222
tp2223
sS'TGa'
p2224
(F1.4543061494299998
g2
(g6
S'\xd3\xeb\x00:\x86\xc1c@'
p2225
tp2226
Rp2227
g2
(g6
S'\xee3B\x8dO-s?'
p2228
tp2229
Rp2230
tp2231
sS'TGg'
p2232
(F1.4543061494299998
g2
(g6
S'\xd3\xeb\x00:\x86\xc1c@'
p2233
tp2234
Rp2235
g2
(g6
S'\xee3B\x8dO-s?'
p2236
tp2237
Rp2238
tp2239
sS'AAg'
p2240
(F1.4543061494299998
g2
(g6
S'\xd3\xeb\x00:\x86\xc1c@'
p2241
tp2242
Rp2243
g2
(g6
S'\xee3B\x8dO-s?'
p2244
tp2245
Rp2246
tp2247
sS'AAa'
p2248
(F1.4543061494299998
g2
(g6
S'\xd3\xeb\x00:\x86\xc1c@'
p2249
tp2250
Rp2251
g2
(g6
S'\xee3B\x8dO-s?'
p2252
tp2253
Rp2254
tp2255
sS'TGT'
p2256
(F1.4543061494299998
g2
(g6
S'\xd3\xeb\x00:\x86\xc1c@'
p2257
tp2258
Rp2259
g2
(g6
S'\xee3B\x8dO-s?'
p2260
tp2261
Rp2262
tp2263
sS'TGC'
p2264
(F1.4543061494299998
g2
(g6
S'\xd3\xeb\x00:\x86\xc1c@'
p2265
tp2266
Rp2267
g2
(g6
S'\xee3B\x8dO-s?'
p2268
tp2269
Rp2270
tp2271
sS'TGA'
p2272
(F1.4543061494299998
g2
(g6
S'\xd3\xeb\x00:\x86\xc1c@'
p2273
tp2274
Rp2275
g2
(g6
S'\xee3B\x8dO-s?'
p2276
tp2277
Rp2278
tp2279
sS'TGG'
p2280
(F1.4543061494299998
g2
(g6
S'\xd3\xeb\x00:\x86\xc1c@'
p2281
tp2282
Rp2283
g2
(g6
S'\xee3B\x8dO-s?'
p2284
tp2285
Rp2286
tp2287
sS'GtA'
p2288
(F1.4543061494299998
g2
(g6
S'\xd3\xeb\x00:\x86\xc1c@'
p2289
tp2290
Rp2291
g2
(g6
S'\xee3B\x8dO-s?'
p2292
tp2293
Rp2294
tp2295
sS'tAa'
p2296
(F1.4543061494299998
g2
(g6
S'\xd3\xeb\x00:\x86\xc1c@'
p2297
tp2298
Rp2299
g2
(g6
S'\xee3B\x8dO-s?'
p2300
tp2301
Rp2302
tp2303
sS'Atg'
p2304
(F1.4543061494299998
g2
(g6
S'\xd3\xeb\x00:\x86\xc1c@'
p2305
tp2306
Rp2307
g2
(g6
S'\xee3B\x8dO-s?'
p2308
tp2309
Rp2310
tp2311
sS'Atc'
p2312
(F1.4543061494299998
g2
(g6
S'\xd3\xeb\x00:\x86\xc1c@'
p2313
tp2314
Rp2315
g2
(g6
S'\xee3B\x8dO-s?'
p2316
tp2317
Rp2318
tp2319
sS'TgT'
p2320
(F1.4543061494299998
g2
(g6
S'\xd3\xeb\x00:\x86\xc1c@'
p2321
tp2322
Rp2323
g2
(g6
S'\xee3B\x8dO-s?'
p2324
tp2325
Rp2326
tp2327
sS'Ata'
p2328
(F1.4543061494299998
g2
(g6
S'\xd3\xeb\x00:\x86\xc1c@'
p2329
tp2330
Rp2331
g2
(g6
S'\xee3B\x8dO-s?'
p2332
tp2333
Rp2334
tp2335
sS'tAc'
p2336
(F1.4543061494299998
g2
(g6
S'\xd3\xeb\x00:\x86\xc1c@'
p2337
tp2338
Rp2339
g2
(g6
S'\xee3B\x8dO-s?'
p2340
tp2341
Rp2342
tp2343
sS'TgC'
p2344
(F1.4543061494299998
g2
(g6
S'\xd3\xeb\x00:\x86\xc1c@'
p2345
tp2346
Rp2347
g2
(g6
S'\xee3B\x8dO-s?'
p2348
tp2349
Rp2350
tp2351
sS'Att'
p2352
(F1.4543061494299998
g2
(g6
S'\xd3\xeb\x00:\x86\xc1c@'
p2353
tp2354
Rp2355
g2
(g6
S'\xee3B\x8dO-s?'
p2356
tp2357
Rp2358
tp2359
sS'TgA'
p2360
(F1.4543061494299998
g2
(g6
S'\xd3\xeb\x00:\x86\xc1c@'
p2361
tp2362
Rp2363
g2
(g6
S'\xee3B\x8dO-s?'
p2364
tp2365
Rp2366
tp2367
sS'TgG'
p2368
(F1.4543061494299998
g2
(g6
S'\xd3\xeb\x00:\x86\xc1c@'
p2369
tp2370
Rp2371
g2
(g6
S'\xee3B\x8dO-s?'
p2372
tp2373
Rp2374
tp2375
sS'AtG'
p2376
(F1.4543061494299998
g2
(g6
S'\xd3\xeb\x00:\x86\xc1c@'
p2377
tp2378
Rp2379
g2
(g6
S'\xee3B\x8dO-s?'
p2380
tp2381
Rp2382
tp2383
sS'AtC'
p2384
(F1.4543061494299998
g2
(g6
S'\xd3\xeb\x00:\x86\xc1c@'
p2385
tp2386
Rp2387
g2
(g6
S'\xee3B\x8dO-s?'
p2388
tp2389
Rp2390
tp2391
sS'Tgt'
p2392
(F1.4543061494299998
g2
(g6
S'\xd3\xeb\x00:\x86\xc1c@'
p2393
tp2394
Rp2395
g2
(g6
S'\xee3B\x8dO-s?'
p2396
tp2397
Rp2398
tp2399
sS'AtA'
p2400
(F1.4543061494299998
g2
(g6
S'\xd3\xeb\x00:\x86\xc1c@'
p2401
tp2402
Rp2403
g2
(g6
S'\xee3B\x8dO-s?'
p2404
tp2405
Rp2406
tp2407
sS'gAc'
p2408
(F1.4543061494299998
g2
(g6
S'\xd3\xeb\x00:\x86\xc1c@'
p2409
tp2410
Rp2411
g2
(g6
S'\xee3B\x8dO-s?'
p2412
tp2413
Rp2414
tp2415
sS'Tgc'
p2416
(F1.4543061494299998
g2
(g6
S'\xd3\xeb\x00:\x86\xc1c@'
p2417
tp2418
Rp2419
g2
(g6
S'\xee3B\x8dO-s?'
p2420
tp2421
Rp2422
tp2423
sS'AtT'
p2424
(F1.4543061494299998
g2
(g6
S'\xd3\xeb\x00:\x86\xc1c@'
p2425
tp2426
Rp2427
g2
(g6
S'\xee3B\x8dO-s?'
p2428
tp2429
Rp2430
tp2431
sS'Tga'
p2432
(F1.4543061494299998
g2
(g6
S'\xd3\xeb\x00:\x86\xc1c@'
p2433
tp2434
Rp2435
g2
(g6
S'\xee3B\x8dO-s?'
p2436
tp2437
Rp2438
tp2439
sS'Tgg'
p2440
(F1.4543061494299998
g2
(g6
S'\xd3\xeb\x00:\x86\xc1c@'
p2441
tp2442
Rp2443
g2
(g6
S'\xee3B\x8dO-s?'
p2444
tp2445
Rp2446
tp2447
sS'gtG'
p2448
(F1.4543061494299998
g2
(g6
S'\xd3\xeb\x00:\x86\xc1c@'
p2449
tp2450
Rp2451
g2
(g6
S'\xee3B\x8dO-s?'
p2452
tp2453
Rp2454
tp2455
sS'Aag'
p2456
(F1.4543061494299998
g2
(g6
S'\xd3\xeb\x00:\x86\xc1c@'
p2457
tp2458
Rp2459
g2
(g6
S'\xee3B\x8dO-s?'
p2460
tp2461
Rp2462
tp2463
sS'Aaa'
p2464
(F1.4543061494299998
g2
(g6
S'\xd3\xeb\x00:\x86\xc1c@'
p2465
tp2466
Rp2467
g2
(g6
S'\xee3B\x8dO-s?'
p2468
tp2469
Rp2470
tp2471
sS'Aac'
p2472
(F1.4543061494299998
g2
(g6
S'\xd3\xeb\x00:\x86\xc1c@'
p2473
tp2474
Rp2475
g2
(g6
S'\xee3B\x8dO-s?'
p2476
tp2477
Rp2478
tp2479
sS'Aat'
p2480
(F1.4543061494299998
g2
(g6
S'\xd3\xeb\x00:\x86\xc1c@'
p2481
tp2482
Rp2483
g2
(g6
S'\xee3B\x8dO-s?'
p2484
tp2485
Rp2486
tp2487
sS'AaG'
p2488
(F1.4543061494299998
g2
(g6
S'\xd3\xeb\x00:\x86\xc1c@'
p2489
tp2490
Rp2491
g2
(g6
S'\xee3B\x8dO-s?'
p2492
tp2493
Rp2494
tp2495
sS'AaA'
p2496
(F1.4543061494299998
g2
(g6
S'\xd3\xeb\x00:\x86\xc1c@'
p2497
tp2498
Rp2499
g2
(g6
S'\xee3B\x8dO-s?'
p2500
tp2501
Rp2502
tp2503
sS'tTa'
p2504
(F1.4543061494299998
g2
(g6
S'\xd3\xeb\x00:\x86\xc1c@'
p2505
tp2506
Rp2507
g2
(g6
S'\xee3B\x8dO-s?'
p2508
tp2509
Rp2510
tp2511
sS'AaC'
p2512
(F1.4543061494299998
g2
(g6
S'\xd3\xeb\x00:\x86\xc1c@'
p2513
tp2514
Rp2515
g2
(g6
S'\xee3B\x8dO-s?'
p2516
tp2517
Rp2518
tp2519
sS'AaT'
p2520
(F1.4543061494299998
g2
(g6
S'\xd3\xeb\x00:\x86\xc1c@'
p2521
tp2522
Rp2523
g2
(g6
S'\xee3B\x8dO-s?'
p2524
tp2525
Rp2526
tp2527
sS'TCt'
p2528
(F1.4543061494299998
g2
(g6
S'\xd3\xeb\x00:\x86\xc1c@'
p2529
tp2530
Rp2531
g2
(g6
S'\xee3B\x8dO-s?'
p2532
tp2533
Rp2534
tp2535
sS'TCg'
p2536
(F1.4543061494299998
g2
(g6
S'\xd3\xeb\x00:\x86\xc1c@'
p2537
tp2538
Rp2539
g2
(g6
S'\xee3B\x8dO-s?'
p2540
tp2541
Rp2542
tp2543
sS'TCc'
p2544
(F1.4543061494299998
g2
(g6
S'\xd3\xeb\x00:\x86\xc1c@'
p2545
tp2546
Rp2547
g2
(g6
S'\xee3B\x8dO-s?'
p2548
tp2549
Rp2550
tp2551
sS'TCa'
p2552
(F1.4543061494299998
g2
(g6
S'\xd3\xeb\x00:\x86\xc1c@'
p2553
tp2554
Rp2555
g2
(g6
S'\xee3B\x8dO-s?'
p2556
tp2557
Rp2558
tp2559
sS'tTg'
p2560
(F1.4543061494299998
g2
(g6
S'\xd3\xeb\x00:\x86\xc1c@'
p2561
tp2562
Rp2563
g2
(g6
S'\xee3B\x8dO-s?'
p2564
tp2565
Rp2566
tp2567
sS'GaC'
p2568
(F1.4543061494299998
g2
(g6
S'\xd3\xeb\x00:\x86\xc1c@'
p2569
tp2570
Rp2571
g2
(g6
S'\xee3B\x8dO-s?'
p2572
tp2573
Rp2574
tp2575
sS'TCT'
p2576
(F1.4543061494299998
g2
(g6
S'\xd3\xeb\x00:\x86\xc1c@'
p2577
tp2578
Rp2579
g2
(g6
S'\xee3B\x8dO-s?'
p2580
tp2581
Rp2582
tp2583
sS'tcc'
p2584
(F1.4543061494299998
g2
(g6
S'\xd3\xeb\x00:\x86\xc1c@'
p2585
tp2586
Rp2587
g2
(g6
S'\xee3B\x8dO-s?'
p2588
tp2589
Rp2590
tp2591
sS'GaA'
p2592
(F1.4543061494299998
g2
(g6
S'\xd3\xeb\x00:\x86\xc1c@'
p2593
tp2594
Rp2595
g2
(g6
S'\xee3B\x8dO-s?'
p2596
tp2597
Rp2598
tp2599
sS'TCG'
p2600
(F1.4543061494299998
g2
(g6
S'\xd3\xeb\x00:\x86\xc1c@'
p2601
tp2602
Rp2603
g2
(g6
S'\xee3B\x8dO-s?'
p2604
tp2605
Rp2606
tp2607
sS'TCC'
p2608
(F1.4543061494299998
g2
(g6
S'\xd3\xeb\x00:\x86\xc1c@'
p2609
tp2610
Rp2611
g2
(g6
S'\xee3B\x8dO-s?'
p2612
tp2613
Rp2614
tp2615
sS'TCA'
p2616
(F1.4543061494299998
g2
(g6
S'\xd3\xeb\x00:\x86\xc1c@'
p2617
tp2618
Rp2619
g2
(g6
S'\xee3B\x8dO-s?'
p2620
tp2621
Rp2622
tp2623
sS'TcT'
p2624
(F1.4543061494299998
g2
(g6
S'\xd3\xeb\x00:\x86\xc1c@'
p2625
tp2626
Rp2627
g2
(g6
S'\xee3B\x8dO-s?'
p2628
tp2629
Rp2630
tp2631
sS'tat'
p2632
(F1.4543061494299998
g2
(g6
S'\xd3\xeb\x00:\x86\xc1c@'
p2633
tp2634
Rp2635
g2
(g6
S'\xee3B\x8dO-s?'
p2636
tp2637
Rp2638
tp2639
sS'TcG'
p2640
(F1.4543061494299998
g2
(g6
S'\xd3\xeb\x00:\x86\xc1c@'
p2641
tp2642
Rp2643
g2
(g6
S'\xee3B\x8dO-s?'
p2644
tp2645
Rp2646
tp2647
sS'TcC'
p2648
(F1.4543061494299998
g2
(g6
S'\xd3\xeb\x00:\x86\xc1c@'
p2649
tp2650
Rp2651
g2
(g6
S'\xee3B\x8dO-s?'
p2652
tp2653
Rp2654
tp2655
sS'TcA'
p2656
(F1.4543061494299998
g2
(g6
S'\xd3\xeb\x00:\x86\xc1c@'
p2657
tp2658
Rp2659
g2
(g6
S'\xee3B\x8dO-s?'
p2660
tp2661
Rp2662
tp2663
sS'Tct'
p2664
(F1.4543061494299998
g2
(g6
S'\xd3\xeb\x00:\x86\xc1c@'
p2665
tp2666
Rp2667
g2
(g6
S'\xee3B\x8dO-s?'
p2668
tp2669
Rp2670
tp2671
sS'Tcg'
p2672
(F1.4543061494299998
g2
(g6
S'\xd3\xeb\x00:\x86\xc1c@'
p2673
tp2674
Rp2675
g2
(g6
S'\xee3B\x8dO-s?'
p2676
tp2677
Rp2678
tp2679
sS'Tcc'
p2680
(F1.4543061494299998
g2
(g6
S'\xd3\xeb\x00:\x86\xc1c@'
p2681
tp2682
Rp2683
g2
(g6
S'\xee3B\x8dO-s?'
p2684
tp2685
Rp2686
tp2687
sS'Tca'
p2688
(F1.4543061494299998
g2
(g6
S'\xd3\xeb\x00:\x86\xc1c@'
p2689
tp2690
Rp2691
g2
(g6
S'\xee3B\x8dO-s?'
p2692
tp2693
Rp2694
tp2695
sS'tgt'
p2696
(F1.4543061494299998
g2
(g6
S'\xd3\xeb\x00:\x86\xc1c@'
p2697
tp2698
Rp2699
g2
(g6
S'\xee3B\x8dO-s?'
p2700
tp2701
Rp2702
tp2703
sS'tgc'
p2704
(F1.4543061494299998
g2
(g6
S'\xd3\xeb\x00:\x86\xc1c@'
p2705
tp2706
Rp2707
g2
(g6
S'\xee3B\x8dO-s?'
p2708
tp2709
Rp2710
tp2711
sS'tga'
p2712
(F1.4543061494299998
g2
(g6
S'\xd3\xeb\x00:\x86\xc1c@'
p2713
tp2714
Rp2715
g2
(g6
S'\xee3B\x8dO-s?'
p2716
tp2717
Rp2718
tp2719
sS'tgg'
p2720
(F1.4543061494299998
g2
(g6
S'\xd3\xeb\x00:\x86\xc1c@'
p2721
tp2722
Rp2723
g2
(g6
S'\xee3B\x8dO-s?'
p2724
tp2725
Rp2726
tp2727
sS'AAC'
p2728
(F1.4543061494299998
g2
(g6
S'\xd3\xeb\x00:\x86\xc1c@'
p2729
tp2730
Rp2731
g2
(g6
S'\xee3B\x8dO-s?'
p2732
tp2733
Rp2734
tp2735
sS'tgT'
p2736
(F1.4543061494299998
g2
(g6
S'\xd3\xeb\x00:\x86\xc1c@'
p2737
tp2738
Rp2739
g2
(g6
S'\xee3B\x8dO-s?'
p2740
tp2741
Rp2742
tp2743
sS'CgA'
p2744
(F1.4543061494299998
g2
(g6
S'\xd3\xeb\x00:\x86\xc1c@'
p2745
tp2746
Rp2747
g2
(g6
S'\xee3B\x8dO-s?'
p2748
tp2749
Rp2750
tp2751
sS'tgA'
p2752
(F1.4543061494299998
g2
(g6
S'\xd3\xeb\x00:\x86\xc1c@'
p2753
tp2754
Rp2755
g2
(g6
S'\xee3B\x8dO-s?'
p2756
tp2757
Rp2758
tp2759
sS'tgG'
p2760
(F1.4543061494299998
g2
(g6
S'\xd3\xeb\x00:\x86\xc1c@'
p2761
tp2762
Rp2763
g2
(g6
S'\xee3B\x8dO-s?'
p2764
tp2765
Rp2766
tp2767
sS'tGT'
p2768
(F1.4543061494299998
g2
(g6
S'\xd3\xeb\x00:\x86\xc1c@'
p2769
tp2770
Rp2771
g2
(g6
S'\xee3B\x8dO-s?'
p2772
tp2773
Rp2774
tp2775
sS'gat'
p2776
(F1.4543061494299998
g2
(g6
S'\xd3\xeb\x00:\x86\xc1c@'
p2777
tp2778
Rp2779
g2
(g6
S'\xee3B\x8dO-s?'
p2780
tp2781
Rp2782
tp2783
sS'tGC'
p2784
(F1.4543061494299998
g2
(g6
S'\xd3\xeb\x00:\x86\xc1c@'
p2785
tp2786
Rp2787
g2
(g6
S'\xee3B\x8dO-s?'
p2788
tp2789
Rp2790
tp2791
sS'tGA'
p2792
(F1.4543061494299998
g2
(g6
S'\xd3\xeb\x00:\x86\xc1c@'
p2793
tp2794
Rp2795
g2
(g6
S'\xee3B\x8dO-s?'
p2796
tp2797
Rp2798
tp2799
sS'CgG'
p2800
(F1.4543061494299998
g2
(g6
S'\xd3\xeb\x00:\x86\xc1c@'
p2801
tp2802
Rp2803
g2
(g6
S'\xee3B\x8dO-s?'
p2804
tp2805
Rp2806
tp2807
sS'gag'
p2808
(F1.4543061494299998
g2
(g6
S'\xd3\xeb\x00:\x86\xc1c@'
p2809
tp2810
Rp2811
g2
(g6
S'\xee3B\x8dO-s?'
p2812
tp2813
Rp2814
tp2815
sS'gac'
p2816
(F1.4543061494299998
g2
(g6
S'\xd3\xeb\x00:\x86\xc1c@'
p2817
tp2818
Rp2819
g2
(g6
S'\xee3B\x8dO-s?'
p2820
tp2821
Rp2822
tp2823
sS'gaa'
p2824
(F1.4543061494299998
g2
(g6
S'\xd3\xeb\x00:\x86\xc1c@'
p2825
tp2826
Rp2827
g2
(g6
S'\xee3B\x8dO-s?'
p2828
tp2829
Rp2830
tp2831
sS'tGt'
p2832
(F1.4543061494299998
g2
(g6
S'\xd3\xeb\x00:\x86\xc1c@'
p2833
tp2834
Rp2835
g2
(g6
S'\xee3B\x8dO-s?'
p2836
tp2837
Rp2838
tp2839
sS'AAT'
p2840
(F1.4543061494299998
g2
(g6
S'\xd3\xeb\x00:\x86\xc1c@'
p2841
tp2842
Rp2843
g2
(g6
S'\xee3B\x8dO-s?'
p2844
tp2845
Rp2846
tp2847
sS'Gac'
p2848
(F1.4543061494299998
g2
(g6
S'\xd3\xeb\x00:\x86\xc1c@'
p2849
tp2850
Rp2851
g2
(g6
S'\xee3B\x8dO-s?'
p2852
tp2853
Rp2854
tp2855
sS'gaT'
p2856
(F1.4543061494299998
g2
(g6
S'\xd3\xeb\x00:\x86\xc1c@'
p2857
tp2858
Rp2859
g2
(g6
S'\xee3B\x8dO-s?'
p2860
tp2861
Rp2862
tp2863
sS'tGc'
p2864
(F1.4543061494299998
g2
(g6
S'\xd3\xeb\x00:\x86\xc1c@'
p2865
tp2866
Rp2867
g2
(g6
S'\xee3B\x8dO-s?'
p2868
tp2869
Rp2870
tp2871
sS'tGa'
p2872
(F1.4543061494299998
g2
(g6
S'\xd3\xeb\x00:\x86\xc1c@'
p2873
tp2874
Rp2875
g2
(g6
S'\xee3B\x8dO-s?'
p2876
tp2877
Rp2878
tp2879
sS'Gaa'
p2880
(F1.4543061494299998
g2
(g6
S'\xd3\xeb\x00:\x86\xc1c@'
p2881
tp2882
Rp2883
g2
(g6
S'\xee3B\x8dO-s?'
p2884
tp2885
Rp2886
tp2887
sS'gaG'
p2888
(F1.4543061494299998
g2
(g6
S'\xd3\xeb\x00:\x86\xc1c@'
p2889
tp2890
Rp2891
g2
(g6
S'\xee3B\x8dO-s?'
p2892
tp2893
Rp2894
tp2895
sS'gaC'
p2896
(F1.4543061494299998
g2
(g6
S'\xd3\xeb\x00:\x86\xc1c@'
p2897
tp2898
Rp2899
g2
(g6
S'\xee3B\x8dO-s?'
p2900
tp2901
Rp2902
tp2903
sS'gaA'
p2904
(F1.4543061494299998
g2
(g6
S'\xd3\xeb\x00:\x86\xc1c@'
p2905
tp2906
Rp2907
g2
(g6
S'\xee3B\x8dO-s?'
p2908
tp2909
Rp2910
tp2911
sS'cCt'
p2912
(F1.4543061494299998
g2
(g6
S'\xd3\xeb\x00:\x86\xc1c@'
p2913
tp2914
Rp2915
g2
(g6
S'\xee3B\x8dO-s?'
p2916
tp2917
Rp2918
tp2919
sS'GAt'
p2920
(F1.4543061494299998
g2
(g6
S'\xd3\xeb\x00:\x86\xc1c@'
p2921
tp2922
Rp2923
g2
(g6
S'\xee3B\x8dO-s?'
p2924
tp2925
Rp2926
tp2927
sS'GAg'
p2928
(F1.4543061494299998
g2
(g6
S'\xd3\xeb\x00:\x86\xc1c@'
p2929
tp2930
Rp2931
g2
(g6
S'\xee3B\x8dO-s?'
p2932
tp2933
Rp2934
tp2935
sS'cCg'
p2936
(F1.4543061494299998
g2
(g6
S'\xd3\xeb\x00:\x86\xc1c@'
p2937
tp2938
Rp2939
g2
(g6
S'\xee3B\x8dO-s?'
p2940
tp2941
Rp2942
tp2943
sS'GAc'
p2944
(F1.4543061494299998
g2
(g6
S'\xd3\xeb\x00:\x86\xc1c@'
p2945
tp2946
Rp2947
g2
(g6
S'\xee3B\x8dO-s?'
p2948
tp2949
Rp2950
tp2951
sS'cCc'
p2952
(F1.4543061494299998
g2
(g6
S'\xd3\xeb\x00:\x86\xc1c@'
p2953
tp2954
Rp2955
g2
(g6
S'\xee3B\x8dO-s?'
p2956
tp2957
Rp2958
tp2959
sS'cCT'
p2960
(F1.4543061494299998
g2
(g6
S'\xd3\xeb\x00:\x86\xc1c@'
p2961
tp2962
Rp2963
g2
(g6
S'\xee3B\x8dO-s?'
p2964
tp2965
Rp2966
tp2967
sS'GAT'
p2968
(F1.4543061494299998
g2
(g6
S'\xd3\xeb\x00:\x86\xc1c@'
p2969
tp2970
Rp2971
g2
(g6
S'\xee3B\x8dO-s?'
p2972
tp2973
Rp2974
tp2975
sS'GAG'
p2976
(F1.4543061494299998
g2
(g6
S'\xd3\xeb\x00:\x86\xc1c@'
p2977
tp2978
Rp2979
g2
(g6
S'\xee3B\x8dO-s?'
p2980
tp2981
Rp2982
tp2983
sS'cCG'
p2984
(F1.4543061494299998
g2
(g6
S'\xd3\xeb\x00:\x86\xc1c@'
p2985
tp2986
Rp2987
g2
(g6
S'\xee3B\x8dO-s?'
p2988
tp2989
Rp2990
tp2991
sS'cCA'
p2992
(F1.4543061494299998
g2
(g6
S'\xd3\xeb\x00:\x86\xc1c@'
p2993
tp2994
Rp2995
g2
(g6
S'\xee3B\x8dO-s?'
p2996
tp2997
Rp2998
tp2999
sS'cCC'
p3000
(F1.4543061494299998
g2
(g6
S'\xd3\xeb\x00:\x86\xc1c@'
p3001
tp3002
Rp3003
g2
(g6
S'\xee3B\x8dO-s?'
p3004
tp3005
Rp3006
tp3007
sS'ccT'
p3008
(F1.4543061494299998
g2
(g6
S'\xd3\xeb\x00:\x86\xc1c@'
p3009
tp3010
Rp3011
g2
(g6
S'\xee3B\x8dO-s?'
p3012
tp3013
Rp3014
tp3015
sS'gAT'
p3016
(F1.4543061494299998
g2
(g6
S'\xd3\xeb\x00:\x86\xc1c@'
p3017
tp3018
Rp3019
g2
(g6
S'\xee3B\x8dO-s?'
p3020
tp3021
Rp3022
tp3023
sS'tAt'
p3024
(F1.4543061494299998
g2
(g6
S'\xd3\xeb\x00:\x86\xc1c@'
p3025
tp3026
Rp3027
g2
(g6
S'\xee3B\x8dO-s?'
p3028
tp3029
Rp3030
tp3031
sS'gAG'
p3032
(F1.4543061494299998
g2
(g6
S'\xd3\xeb\x00:\x86\xc1c@'
p3033
tp3034
Rp3035
g2
(g6
S'\xee3B\x8dO-s?'
p3036
tp3037
Rp3038
tp3039
sS'ccG'
p3040
(F1.4543061494299998
g2
(g6
S'\xd3\xeb\x00:\x86\xc1c@'
p3041
tp3042
Rp3043
g2
(g6
S'\xee3B\x8dO-s?'
p3044
tp3045
Rp3046
tp3047
sS'tTT'
p3048
(F1.4543061494299998
g2
(g6
S'\xd3\xeb\x00:\x86\xc1c@'
p3049
tp3050
Rp3051
g2
(g6
S'\xee3B\x8dO-s?'
p3052
tp3053
Rp3054
tp3055
sS'ccA'
p3056
(F1.4543061494299998
g2
(g6
S'\xd3\xeb\x00:\x86\xc1c@'
p3057
tp3058
Rp3059
g2
(g6
S'\xee3B\x8dO-s?'
p3060
tp3061
Rp3062
tp3063
sS'ccC'
p3064
(F1.4543061494299998
g2
(g6
S'\xd3\xeb\x00:\x86\xc1c@'
p3065
tp3066
Rp3067
g2
(g6
S'\xee3B\x8dO-s?'
p3068
tp3069
Rp3070
tp3071
sS'AAc'
p3072
(F1.4543061494299998
g2
(g6
S'\xd3\xeb\x00:\x86\xc1c@'
p3073
tp3074
Rp3075
g2
(g6
S'\xee3B\x8dO-s?'
p3076
tp3077
Rp3078
tp3079
sS'cct'
p3080
(F1.4543061494299998
g2
(g6
S'\xd3\xeb\x00:\x86\xc1c@'
p3081
tp3082
Rp3083
g2
(g6
S'\xee3B\x8dO-s?'
p3084
tp3085
Rp3086
tp3087
sS'gAt'
p3088
(F1.4543061494299998
g2
(g6
S'\xd3\xeb\x00:\x86\xc1c@'
p3089
tp3090
Rp3091
g2
(g6
S'\xee3B\x8dO-s?'
p3092
tp3093
Rp3094
tp3095
sS'Cga'
p3096
(F1.4543061494299998
g2
(g6
S'\xd3\xeb\x00:\x86\xc1c@'
p3097
tp3098
Rp3099
g2
(g6
S'\xee3B\x8dO-s?'
p3100
tp3101
Rp3102
tp3103
sS'gAg'
p3104
(F1.4543061494299998
g2
(g6
S'\xd3\xeb\x00:\x86\xc1c@'
p3105
tp3106
Rp3107
g2
(g6
S'\xee3B\x8dO-s?'
p3108
tp3109
Rp3110
tp3111
sS'ccg'
p3112
(F1.4543061494299998
g2
(g6
S'\xd3\xeb\x00:\x86\xc1c@'
p3113
tp3114
Rp3115
g2
(g6
S'\xee3B\x8dO-s?'
p3116
tp3117
Rp3118
tp3119
sS'cca'
p3120
(F1.4543061494299998
g2
(g6
S'\xd3\xeb\x00:\x86\xc1c@'
p3121
tp3122
Rp3123
g2
(g6
S'\xee3B\x8dO-s?'
p3124
tp3125
Rp3126
tp3127
sS'ccc'
p3128
(F1.4543061494299998
g2
(g6
S'\xd3\xeb\x00:\x86\xc1c@'
p3129
tp3130
Rp3131
g2
(g6
S'\xee3B\x8dO-s?'
p3132
tp3133
Rp3134
tp3135
sS'CCT'
p3136
(F1.4543061494299998
g2
(g6
S'\xd3\xeb\x00:\x86\xc1c@'
p3137
tp3138
Rp3139
g2
(g6
S'\xee3B\x8dO-s?'
p3140
tp3141
Rp3142
tp3143
sS'tct'
p3144
(F1.4543061494299998
g2
(g6
S'\xd3\xeb\x00:\x86\xc1c@'
p3145
tp3146
Rp3147
g2
(g6
S'\xee3B\x8dO-s?'
p3148
tp3149
Rp3150
tp3151
sS'GaT'
p3152
(F1.4543061494299998
g2
(g6
S'\xd3\xeb\x00:\x86\xc1c@'
p3153
tp3154
Rp3155
g2
(g6
S'\xee3B\x8dO-s?'
p3156
tp3157
Rp3158
tp3159
sS'tTC'
p3160
(F1.4543061494299998
g2
(g6
S'\xd3\xeb\x00:\x86\xc1c@'
p3161
tp3162
Rp3163
g2
(g6
S'\xee3B\x8dO-s?'
p3164
tp3165
Rp3166
tp3167
sS'Cgg'
p3168
(F1.4543061494299998
g2
(g6
S'\xd3\xeb\x00:\x86\xc1c@'
p3169
tp3170
Rp3171
g2
(g6
S'\xee3B\x8dO-s?'
p3172
tp3173
Rp3174
tp3175
sS'GaG'
p3176
(F1.4543061494299998
g2
(g6
S'\xd3\xeb\x00:\x86\xc1c@'
p3177
tp3178
Rp3179
g2
(g6
S'\xee3B\x8dO-s?'
p3180
tp3181
Rp3182
tp3183
sS'tcg'
p3184
(F1.4543061494299998
g2
(g6
S'\xd3\xeb\x00:\x86\xc1c@'
p3185
tp3186
Rp3187
g2
(g6
S'\xee3B\x8dO-s?'
p3188
tp3189
Rp3190
tp3191
sS'CCG'
p3192
(F1.4543061494299998
g2
(g6
S'\xd3\xeb\x00:\x86\xc1c@'
p3193
tp3194
Rp3195
g2
(g6
S'\xee3B\x8dO-s?'
p3196
tp3197
Rp3198
tp3199
sS'CCA'
p3200
(F1.4543061494299998
g2
(g6
S'\xd3\xeb\x00:\x86\xc1c@'
p3201
tp3202
Rp3203
g2
(g6
S'\xee3B\x8dO-s?'
p3204
tp3205
Rp3206
tp3207
sS'tTA'
p3208
(F1.4543061494299998
g2
(g6
S'\xd3\xeb\x00:\x86\xc1c@'
p3209
tp3210
Rp3211
g2
(g6
S'\xee3B\x8dO-s?'
p3212
tp3213
Rp3214
tp3215
sS'CCC'
p3216
(F1.4543061494299998
g2
(g6
S'\xd3\xeb\x00:\x86\xc1c@'
p3217
tp3218
Rp3219
g2
(g6
S'\xee3B\x8dO-s?'
p3220
tp3221
Rp3222
tp3223
sS'tca'
p3224
(F1.4543061494299998
g2
(g6
S'\xd3\xeb\x00:\x86\xc1c@'
p3225
tp3226
Rp3227
g2
(g6
S'\xee3B\x8dO-s?'
p3228
tp3229
Rp3230
tp3231
sS'AAt'
p3232
(F1.4543061494299998
g2
(g6
S'\xd3\xeb\x00:\x86\xc1c@'
p3233
tp3234
Rp3235
g2
(g6
S'\xee3B\x8dO-s?'
p3236
tp3237
Rp3238
tp3239
sS'CCt'
p3240
(F1.4543061494299998
g2
(g6
S'\xd3\xeb\x00:\x86\xc1c@'
p3241
tp3242
Rp3243
g2
(g6
S'\xee3B\x8dO-s?'
p3244
tp3245
Rp3246
tp3247
sS'tcT'
p3248
(F1.4543061494299998
g2
(g6
S'\xd3\xeb\x00:\x86\xc1c@'
p3249
tp3250
Rp3251
g2
(g6
S'\xee3B\x8dO-s?'
p3252
tp3253
Rp3254
tp3255
sS'Gat'
p3256
(F1.4543061494299998
g2
(g6
S'\xd3\xeb\x00:\x86\xc1c@'
p3257
tp3258
Rp3259
g2
(g6
S'\xee3B\x8dO-s?'
p3260
tp3261
Rp3262
tp3263
sS'Gag'
p3264
(F1.4543061494299998
g2
(g6
S'\xd3\xeb\x00:\x86\xc1c@'
p3265
tp3266
Rp3267
g2
(g6
S'\xee3B\x8dO-s?'
p3268
tp3269
Rp3270
tp3271
sS'tcG'
p3272
(F1.4543061494299998
g2
(g6
S'\xd3\xeb\x00:\x86\xc1c@'
p3273
tp3274
Rp3275
g2
(g6
S'\xee3B\x8dO-s?'
p3276
tp3277
Rp3278
tp3279
sS'CCg'
p3280
(F1.4543061494299998
g2
(g6
S'\xd3\xeb\x00:\x86\xc1c@'
p3281
tp3282
Rp3283
g2
(g6
S'\xee3B\x8dO-s?'
p3284
tp3285
Rp3286
tp3287
sS'CCa'
p3288
(F1.4543061494299998
g2
(g6
S'\xd3\xeb\x00:\x86\xc1c@'
p3289
tp3290
Rp3291
g2
(g6
S'\xee3B\x8dO-s?'
p3292
tp3293
Rp3294
tp3295
sS'tcC'
p3296
(F1.4543061494299998
g2
(g6
S'\xd3\xeb\x00:\x86\xc1c@'
p3297
tp3298
Rp3299
g2
(g6
S'\xee3B\x8dO-s?'
p3300
tp3301
Rp3302
tp3303
sS'CCc'
p3304
(F1.4543061494299998
g2
(g6
S'\xd3\xeb\x00:\x86\xc1c@'
p3305
tp3306
Rp3307
g2
(g6
S'\xee3B\x8dO-s?'
p3308
tp3309
Rp3310
tp3311
sS'tcA'
p3312
(F1.4543061494299998
g2
(g6
S'\xd3\xeb\x00:\x86\xc1c@'
p3313
tp3314
Rp3315
g2
(g6
S'\xee3B\x8dO-s?'
p3316
tp3317
Rp3318
tp3319
sS'tCT'
p3320
(F1.4543061494299998
g2
(g6
S'\xd3\xeb\x00:\x86\xc1c@'
p3321
tp3322
Rp3323
g2
(g6
S'\xee3B\x8dO-s?'
p3324
tp3325
Rp3326
tp3327
sS'tAT'
p3328
(F1.4543061494299998
g2
(g6
S'\xd3\xeb\x00:\x86\xc1c@'
p3329
tp3330
Rp3331
g2
(g6
S'\xee3B\x8dO-s?'
p3332
tp3333
Rp3334
tp3335
sS'tCG'
p3336
(F1.4543061494299998
g2
(g6
S'\xd3\xeb\x00:\x86\xc1c@'
p3337
tp3338
Rp3339
g2
(g6
S'\xee3B\x8dO-s?'
p3340
tp3341
Rp3342
tp3343
sS'tCC'
p3344
(F1.4543061494299998
g2
(g6
S'\xd3\xeb\x00:\x86\xc1c@'
p3345
tp3346
Rp3347
g2
(g6
S'\xee3B\x8dO-s?'
p3348
tp3349
Rp3350
tp3351
sS'tCA'
p3352
(F1.4543061494299998
g2
(g6
S'\xd3\xeb\x00:\x86\xc1c@'
p3353
tp3354
Rp3355
g2
(g6
S'\xee3B\x8dO-s?'
p3356
tp3357
Rp3358
tp3359
sS'tCt'
p3360
(F1.4543061494299998
g2
(g6
S'\xd3\xeb\x00:\x86\xc1c@'
p3361
tp3362
Rp3363
g2
(g6
S'\xee3B\x8dO-s?'
p3364
tp3365
Rp3366
tp3367
sS'tCg'
p3368
(F1.4543061494299998
g2
(g6
S'\xd3\xeb\x00:\x86\xc1c@'
p3369
tp3370
Rp3371
g2
(g6
S'\xee3B\x8dO-s?'
p3372
tp3373
Rp3374
tp3375
sS'tCc'
p3376
(F1.4543061494299998
g2
(g6
S'\xd3\xeb\x00:\x86\xc1c@'
p3377
tp3378
Rp3379
g2
(g6
S'\xee3B\x8dO-s?'
p3380
tp3381
Rp3382
tp3383
sS'tCa'
p3384
(F1.4543061494299998
g2
(g6
S'\xd3\xeb\x00:\x86\xc1c@'
p3385
tp3386
Rp3387
g2
(g6
S'\xee3B\x8dO-s?'
p3388
tp3389
Rp3390
tp3391
sS'aCc'
p3392
(F1.4543061494299998
g2
(g6
S'\xd3\xeb\x00:\x86\xc1c@'
p3393
tp3394
Rp3395
g2
(g6
S'\xee3B\x8dO-s?'
p3396
tp3397
Rp3398
tp3399
sS'aCa'
p3400
(F1.4543061494299998
g2
(g6
S'\xd3\xeb\x00:\x86\xc1c@'
p3401
tp3402
Rp3403
g2
(g6
S'\xee3B\x8dO-s?'
p3404
tp3405
Rp3406
tp3407
sS'aCg'
p3408
(F1.4543061494299998
g2
(g6
S'\xd3\xeb\x00:\x86\xc1c@'
p3409
tp3410
Rp3411
g2
(g6
S'\xee3B\x8dO-s?'
p3412
tp3413
Rp3414
tp3415
sS'aCt'
p3416
(F1.4543061494299998
g2
(g6
S'\xd3\xeb\x00:\x86\xc1c@'
p3417
tp3418
Rp3419
g2
(g6
S'\xee3B\x8dO-s?'
p3420
tp3421
Rp3422
tp3423
sS'tTt'
p3424
(F1.4543061494299998
g2
(g6
S'\xd3\xeb\x00:\x86\xc1c@'
p3425
tp3426
Rp3427
g2
(g6
S'\xee3B\x8dO-s?'
p3428
tp3429
Rp3430
tp3431
sS'aCC'
p3432
(F1.4543061494299998
g2
(g6
S'\xd3\xeb\x00:\x86\xc1c@'
p3433
tp3434
Rp3435
g2
(g6
S'\xee3B\x8dO-s?'
p3436
tp3437
Rp3438
tp3439
sS'aCA'
p3440
(F1.4543061494299998
g2
(g6
S'\xd3\xeb\x00:\x86\xc1c@'
p3441
tp3442
Rp3443
g2
(g6
S'\xee3B\x8dO-s?'
p3444
tp3445
Rp3446
tp3447
sS'aCG'
p3448
(F1.4543061494299998
g2
(g6
S'\xd3\xeb\x00:\x86\xc1c@'
p3449
tp3450
Rp3451
g2
(g6
S'\xee3B\x8dO-s?'
p3452
tp3453
Rp3454
tp3455
sS'aCT'
p3456
(F1.4543061494299998
g2
(g6
S'\xd3\xeb\x00:\x86\xc1c@'
p3457
tp3458
Rp3459
g2
(g6
S'\xee3B\x8dO-s?'
p3460
tp3461
Rp3462
tp3463
sS'gCT'
p3464
(F1.4543061494299998
g2
(g6
S'\xd3\xeb\x00:\x86\xc1c@'
p3465
tp3466
Rp3467
g2
(g6
S'\xee3B\x8dO-s?'
p3468
tp3469
Rp3470
tp3471
sS'acC'
p3472
(F1.4543061494299998
g2
(g6
S'\xd3\xeb\x00:\x86\xc1c@'
p3473
tp3474
Rp3475
g2
(g6
S'\xee3B\x8dO-s?'
p3476
tp3477
Rp3478
tp3479
sS'acA'
p3480
(F1.4543061494299998
g2
(g6
S'\xd3\xeb\x00:\x86\xc1c@'
p3481
tp3482
Rp3483
g2
(g6
S'\xee3B\x8dO-s?'
p3484
tp3485
Rp3486
tp3487
sS'acG'
p3488
(F1.4543061494299998
g2
(g6
S'\xd3\xeb\x00:\x86\xc1c@'
p3489
tp3490
Rp3491
g2
(g6
S'\xee3B\x8dO-s?'
p3492
tp3493
Rp3494
tp3495
sS'cga'
p3496
(F1.4543061494299998
g2
(g6
S'\xd3\xeb\x00:\x86\xc1c@'
p3497
tp3498
Rp3499
g2
(g6
S'\xee3B\x8dO-s?'
p3500
tp3501
Rp3502
tp3503
sS'Cct'
p3504
(F1.4543061494299998
g2
(g6
S'\xd3\xeb\x00:\x86\xc1c@'
p3505
tp3506
Rp3507
g2
(g6
S'\xee3B\x8dO-s?'
p3508
tp3509
Rp3510
tp3511
sS'cgc'
p3512
(F1.4543061494299998
g2
(g6
S'\xd3\xeb\x00:\x86\xc1c@'
p3513
tp3514
Rp3515
g2
(g6
S'\xee3B\x8dO-s?'
p3516
tp3517
Rp3518
tp3519
sS'cgg'
p3520
(F1.4543061494299998
g2
(g6
S'\xd3\xeb\x00:\x86\xc1c@'
p3521
tp3522
Rp3523
g2
(g6
S'\xee3B\x8dO-s?'
p3524
tp3525
Rp3526
tp3527
sS'tTc'
p3528
(F1.4543061494299998
g2
(g6
S'\xd3\xeb\x00:\x86\xc1c@'
p3529
tp3530
Rp3531
g2
(g6
S'\xee3B\x8dO-s?'
p3532
tp3533
Rp3534
tp3535
sS'acT'
p3536
(F1.4543061494299998
g2
(g6
S'\xd3\xeb\x00:\x86\xc1c@'
p3537
tp3538
Rp3539
g2
(g6
S'\xee3B\x8dO-s?'
p3540
tp3541
Rp3542
tp3543
sS'Ccg'
p3544
(F1.4543061494299998
g2
(g6
S'\xd3\xeb\x00:\x86\xc1c@'
p3545
tp3546
Rp3547
g2
(g6
S'\xee3B\x8dO-s?'
p3548
tp3549
Rp3550
tp3551
sS'Cca'
p3552
(F1.4543061494299998
g2
(g6
S'\xd3\xeb\x00:\x86\xc1c@'
p3553
tp3554
Rp3555
g2
(g6
S'\xee3B\x8dO-s?'
p3556
tp3557
Rp3558
tp3559
sS'cgt'
p3560
(F1.4543061494299998
g2
(g6
S'\xd3\xeb\x00:\x86\xc1c@'
p3561
tp3562
Rp3563
g2
(g6
S'\xee3B\x8dO-s?'
p3564
tp3565
Rp3566
tp3567
sS'Ccc'
p3568
(F1.4543061494299998
g2
(g6
S'\xd3\xeb\x00:\x86\xc1c@'
p3569
tp3570
Rp3571
g2
(g6
S'\xee3B\x8dO-s?'
p3572
tp3573
Rp3574
tp3575
sS'acc'
p3576
(F1.4543061494299998
g2
(g6
S'\xd3\xeb\x00:\x86\xc1c@'
p3577
tp3578
Rp3579
g2
(g6
S'\xee3B\x8dO-s?'
p3580
tp3581
Rp3582
tp3583
sS'aca'
p3584
(F1.4543061494299998
g2
(g6
S'\xd3\xeb\x00:\x86\xc1c@'
p3585
tp3586
Rp3587
g2
(g6
S'\xee3B\x8dO-s?'
p3588
tp3589
Rp3590
tp3591
sS'acg'
p3592
(F1.4543061494299998
g2
(g6
S'\xd3\xeb\x00:\x86\xc1c@'
p3593
tp3594
Rp3595
g2
(g6
S'\xee3B\x8dO-s?'
p3596
tp3597
Rp3598
tp3599
sS'cgA'
p3600
(F1.4543061494299998
g2
(g6
S'\xd3\xeb\x00:\x86\xc1c@'
p3601
tp3602
Rp3603
g2
(g6
S'\xee3B\x8dO-s?'
p3604
tp3605
Rp3606
tp3607
sS'CcT'
p3608
(F1.4543061494299998
g2
(g6
S'\xd3\xeb\x00:\x86\xc1c@'
p3609
tp3610
Rp3611
g2
(g6
S'\xee3B\x8dO-s?'
p3612
tp3613
Rp3614
tp3615
sS'cgC'
p3616
(F1.4543061494299998
g2
(g6
S'\xd3\xeb\x00:\x86\xc1c@'
p3617
tp3618
Rp3619
g2
(g6
S'\xee3B\x8dO-s?'
p3620
tp3621
Rp3622
tp3623
sS'cgG'
p3624
(F1.4543061494299998
g2
(g6
S'\xd3\xeb\x00:\x86\xc1c@'
p3625
tp3626
Rp3627
g2
(g6
S'\xee3B\x8dO-s?'
p3628
tp3629
Rp3630
tp3631
sS'act'
p3632
(F1.4543061494299998
g2
(g6
S'\xd3\xeb\x00:\x86\xc1c@'
p3633
tp3634
Rp3635
g2
(g6
S'\xee3B\x8dO-s?'
p3636
tp3637
Rp3638
tp3639
sS'CcG'
p3640
(F1.4543061494299998
g2
(g6
S'\xd3\xeb\x00:\x86\xc1c@'
p3641
tp3642
Rp3643
g2
(g6
S'\xee3B\x8dO-s?'
p3644
tp3645
Rp3646
tp3647
sS'CcA'
p3648
(F1.4543061494299998
g2
(g6
S'\xd3\xeb\x00:\x86\xc1c@'
p3649
tp3650
Rp3651
g2
(g6
S'\xee3B\x8dO-s?'
p3652
tp3653
Rp3654
tp3655
sS'cgT'
p3656
(F1.4543061494299998
g2
(g6
S'\xd3\xeb\x00:\x86\xc1c@'
p3657
tp3658
Rp3659
g2
(g6
S'\xee3B\x8dO-s?'
p3660
tp3661
Rp3662
tp3663
sS'CcC'
p3664
(F1.4543061494299998
g2
(g6
S'\xd3\xeb\x00:\x86\xc1c@'
p3665
tp3666
Rp3667
g2
(g6
S'\xee3B\x8dO-s?'
p3668
tp3669
Rp3670
tp3671
sS'ACC'
p3672
(F1.4543061494299998
g2
(g6
S'\xd3\xeb\x00:\x86\xc1c@'
p3673
tp3674
Rp3675
g2
(g6
S'\xee3B\x8dO-s?'
p3676
tp3677
Rp3678
tp3679
sS'ACA'
p3680
(F1.4543061494299998
g2
(g6
S'\xd3\xeb\x00:\x86\xc1c@'
p3681
tp3682
Rp3683
g2
(g6
S'\xee3B\x8dO-s?'
p3684
tp3685
Rp3686
tp3687
sS'ACG'
p3688
(F1.4543061494299998
g2
(g6
S'\xd3\xeb\x00:\x86\xc1c@'
p3689
tp3690
Rp3691
g2
(g6
S'\xee3B\x8dO-s?'
p3692
tp3693
Rp3694
tp3695
sS'CGa'
p3696
(F1.4543061494299998
g2
(g6
S'\xd3\xeb\x00:\x86\xc1c@'
p3697
tp3698
Rp3699
g2
(g6
S'\xee3B\x8dO-s?'
p3700
tp3701
Rp3702
tp3703
sS'CGc'
p3704
(F1.4543061494299998
g2
(g6
S'\xd3\xeb\x00:\x86\xc1c@'
p3705
tp3706
Rp3707
g2
(g6
S'\xee3B\x8dO-s?'
p3708
tp3709
Rp3710
tp3711
sS'CGg'
p3712
(F1.4543061494299998
g2
(g6
S'\xd3\xeb\x00:\x86\xc1c@'
p3713
tp3714
Rp3715
g2
(g6
S'\xee3B\x8dO-s?'
p3716
tp3717
Rp3718
tp3719
sS'ACT'
p3720
(F1.4543061494299998
g2
(g6
S'\xd3\xeb\x00:\x86\xc1c@'
p3721
tp3722
Rp3723
g2
(g6
S'\xee3B\x8dO-s?'
p3724
tp3725
Rp3726
tp3727
sS'CGt'
p3728
(F1.4543061494299998
g2
(g6
S'\xd3\xeb\x00:\x86\xc1c@'
p3729
tp3730
Rp3731
g2
(g6
S'\xee3B\x8dO-s?'
p3732
tp3733
Rp3734
tp3735
sS'ACc'
p3736
(F1.4543061494299998
g2
(g6
S'\xd3\xeb\x00:\x86\xc1c@'
p3737
tp3738
Rp3739
g2
(g6
S'\xee3B\x8dO-s?'
p3740
tp3741
Rp3742
tp3743
sS'ACa'
p3744
(F1.4543061494299998
g2
(g6
S'\xd3\xeb\x00:\x86\xc1c@'
p3745
tp3746
Rp3747
g2
(g6
S'\xee3B\x8dO-s?'
p3748
tp3749
Rp3750
tp3751
sS'ACg'
p3752
(F1.4543061494299998
g2
(g6
S'\xd3\xeb\x00:\x86\xc1c@'
p3753
tp3754
Rp3755
g2
(g6
S'\xee3B\x8dO-s?'
p3756
tp3757
Rp3758
tp3759
sS'tgC'
p3760
(F1.4543061494299998
g2
(g6
S'\xd3\xeb\x00:\x86\xc1c@'
p3761
tp3762
Rp3763
g2
(g6
S'\xee3B\x8dO-s?'
p3764
tp3765
Rp3766
tp3767
sS'CGA'
p3768
(F1.4543061494299998
g2
(g6
S'\xd3\xeb\x00:\x86\xc1c@'
p3769
tp3770
Rp3771
g2
(g6
S'\xee3B\x8dO-s?'
p3772
tp3773
Rp3774
tp3775
sS'CGC'
p3776
(F1.4543061494299998
g2
(g6
S'\xd3\xeb\x00:\x86\xc1c@'
p3777
tp3778
Rp3779
g2
(g6
S'\xee3B\x8dO-s?'
p3780
tp3781
Rp3782
tp3783
sS'CGG'
p3784
(F1.4543061494299998
g2
(g6
S'\xd3\xeb\x00:\x86\xc1c@'
p3785
tp3786
Rp3787
g2
(g6
S'\xee3B\x8dO-s?'
p3788
tp3789
Rp3790
tp3791
sS'ACt'
p3792
(F1.4543061494299998
g2
(g6
S'\xd3\xeb\x00:\x86\xc1c@'
p3793
tp3794
Rp3795
g2
(g6
S'\xee3B\x8dO-s?'
p3796
tp3797
Rp3798
tp3799
sS'CGT'
p3800
(F1.4543061494299998
g2
(g6
S'\xd3\xeb\x00:\x86\xc1c@'
p3801
tp3802
Rp3803
g2
(g6
S'\xee3B\x8dO-s?'
p3804
tp3805
Rp3806
tp3807
sS'cGA'
p3808
(F1.4543061494299998
g2
(g6
S'\xd3\xeb\x00:\x86\xc1c@'
p3809
tp3810
Rp3811
g2
(g6
S'\xee3B\x8dO-s?'
p3812
tp3813
Rp3814
tp3815
sS'cGC'
p3816
(F1.4543061494299998
g2
(g6
S'\xd3\xeb\x00:\x86\xc1c@'
p3817
tp3818
Rp3819
g2
(g6
S'\xee3B\x8dO-s?'
p3820
tp3821
Rp3822
tp3823
sS'cGG'
p3824
(F1.4543061494299998
g2
(g6
S'\xd3\xeb\x00:\x86\xc1c@'
p3825
tp3826
Rp3827
g2
(g6
S'\xee3B\x8dO-s?'
p3828
tp3829
Rp3830
tp3831
sS'cGT'
p3832
(F1.4543061494299998
g2
(g6
S'\xd3\xeb\x00:\x86\xc1c@'
p3833
tp3834
Rp3835
g2
(g6
S'\xee3B\x8dO-s?'
p3836
tp3837
Rp3838
tp3839
sS'cGa'
p3840
(F1.4543061494299998
g2
(g6
S'\xd3\xeb\x00:\x86\xc1c@'
p3841
tp3842
Rp3843
g2
(g6
S'\xee3B\x8dO-s?'
p3844
tp3845
Rp3846
tp3847
sS'cGc'
p3848
(F1.4543061494299998
g2
(g6
S'\xd3\xeb\x00:\x86\xc1c@'
p3849
tp3850
Rp3851
g2
(g6
S'\xee3B\x8dO-s?'
p3852
tp3853
Rp3854
tp3855
sS'cGg'
p3856
(F1.4543061494299998
g2
(g6
S'\xd3\xeb\x00:\x86\xc1c@'
p3857
tp3858
Rp3859
g2
(g6
S'\xee3B\x8dO-s?'
p3860
tp3861
Rp3862
tp3863
sS'cGt'
p3864
(F1.4543061494299998
g2
(g6
S'\xd3\xeb\x00:\x86\xc1c@'
p3865
tp3866
Rp3867
g2
(g6
S'\xee3B\x8dO-s?'
p3868
tp3869
Rp3870
tp3871
sS'aGg'
p3872
(F1.4543061494299998
g2
(g6
S'\xd3\xeb\x00:\x86\xc1c@'
p3873
tp3874
Rp3875
g2
(g6
S'\xee3B\x8dO-s?'
p3876
tp3877
Rp3878
tp3879
sS'CgC'
p3880
(F1.4543061494299998
g2
(g6
S'\xd3\xeb\x00:\x86\xc1c@'
p3881
tp3882
Rp3883
g2
(g6
S'\xee3B\x8dO-s?'
p3884
tp3885
Rp3886
tp3887
sS'aGc'
p3888
(F1.4543061494299998
g2
(g6
S'\xd3\xeb\x00:\x86\xc1c@'
p3889
tp3890
Rp3891
g2
(g6
S'\xee3B\x8dO-s?'
p3892
tp3893
Rp3894
tp3895
sS'aGa'
p3896
(F1.4543061494299998
g2
(g6
S'\xd3\xeb\x00:\x86\xc1c@'
p3897
tp3898
Rp3899
g2
(g6
S'\xee3B\x8dO-s?'
p3900
tp3901
Rp3902
tp3903
sS'aGt'
p3904
(F1.4543061494299998
g2
(g6
S'\xd3\xeb\x00:\x86\xc1c@'
p3905
tp3906
Rp3907
g2
(g6
S'\xee3B\x8dO-s?'
p3908
tp3909
Rp3910
tp3911
sS'CgT'
p3912
(F1.4543061494299998
g2
(g6
S'\xd3\xeb\x00:\x86\xc1c@'
p3913
tp3914
Rp3915
g2
(g6
S'\xee3B\x8dO-s?'
p3916
tp3917
Rp3918
tp3919
sS'aGG'
p3920
(F1.4543061494299998
g2
(g6
S'\xd3\xeb\x00:\x86\xc1c@'
p3921
tp3922
Rp3923
g2
(g6
S'\xee3B\x8dO-s?'
p3924
tp3925
Rp3926
tp3927
sS'Cgc'
p3928
(F1.4543061494299998
g2
(g6
S'\xd3\xeb\x00:\x86\xc1c@'
p3929
tp3930
Rp3931
g2
(g6
S'\xee3B\x8dO-s?'
p3932
tp3933
Rp3934
tp3935
sS'aGC'
p3936
(F1.4543061494299998
g2
(g6
S'\xd3\xeb\x00:\x86\xc1c@'
p3937
tp3938
Rp3939
g2
(g6
S'\xee3B\x8dO-s?'
p3940
tp3941
Rp3942
tp3943
sS'aGA'
p3944
(F1.4543061494299998
g2
(g6
S'\xd3\xeb\x00:\x86\xc1c@'
p3945
tp3946
Rp3947
g2
(g6
S'\xee3B\x8dO-s?'
p3948
tp3949
Rp3950
tp3951
sS'aGT'
p3952
(F1.4543061494299998
g2
(g6
S'\xd3\xeb\x00:\x86\xc1c@'
p3953
tp3954
Rp3955
g2
(g6
S'\xee3B\x8dO-s?'
p3956
tp3957
Rp3958
tp3959
sS'Cgt'
p3960
(F1.4543061494299998
g2
(g6
S'\xd3\xeb\x00:\x86\xc1c@'
p3961
tp3962
Rp3963
g2
(g6
S'\xee3B\x8dO-s?'
p3964
tp3965
Rp3966
tp3967
sS'Acc'
p3968
(F1.4543061494299998
g2
(g6
S'\xd3\xeb\x00:\x86\xc1c@'
p3969
tp3970
Rp3971
g2
(g6
S'\xee3B\x8dO-s?'
p3972
tp3973
Rp3974
tp3975
sS'Aca'
p3976
(F1.4543061494299998
g2
(g6
S'\xd3\xeb\x00:\x86\xc1c@'
p3977
tp3978
Rp3979
g2
(g6
S'\xee3B\x8dO-s?'
p3980
tp3981
Rp3982
tp3983
sS'Acg'
p3984
(F1.4543061494299998
g2
(g6
S'\xd3\xeb\x00:\x86\xc1c@'
p3985
tp3986
Rp3987
g2
(g6
S'\xee3B\x8dO-s?'
p3988
tp3989
Rp3990
tp3991
sS'agG'
p3992
(F1.4543061494299998
g2
(g6
S'\xd3\xeb\x00:\x86\xc1c@'
p3993
tp3994
Rp3995
g2
(g6
S'\xee3B\x8dO-s?'
p3996
tp3997
Rp3998
tp3999
sS'agC'
p4000
(F1.4543061494299998
g2
(g6
S'\xd3\xeb\x00:\x86\xc1c@'
p4001
tp4002
Rp4003
g2
(g6
S'\xee3B\x8dO-s?'
p4004
tp4005
Rp4006
tp4007
sS'agA'
p4008
(F1.4543061494299998
g2
(g6
S'\xd3\xeb\x00:\x86\xc1c@'
p4009
tp4010
Rp4011
g2
(g6
S'\xee3B\x8dO-s?'
p4012
tp4013
Rp4014
tp4015
sS'Act'
p4016
(F1.4543061494299998
g2
(g6
S'\xd3\xeb\x00:\x86\xc1c@'
p4017
tp4018
Rp4019
g2
(g6
S'\xee3B\x8dO-s?'
p4020
tp4021
Rp4022
tp4023
sS'agT'
p4024
(F1.4543061494299998
g2
(g6
S'\xd3\xeb\x00:\x86\xc1c@'
p4025
tp4026
Rp4027
g2
(g6
S'\xee3B\x8dO-s?'
p4028
tp4029
Rp4030
tp4031
sS'AcC'
p4032
(F1.4543061494299998
g2
(g6
S'\xd3\xeb\x00:\x86\xc1c@'
p4033
tp4034
Rp4035
g2
(g6
S'\xee3B\x8dO-s?'
p4036
tp4037
Rp4038
tp4039
sS'AcA'
p4040
(F1.4543061494299998
g2
(g6
S'\xd3\xeb\x00:\x86\xc1c@'
p4041
tp4042
Rp4043
g2
(g6
S'\xee3B\x8dO-s?'
p4044
tp4045
Rp4046
tp4047
sS'AcG'
p4048
(F1.4543061494299998
g2
(g6
S'\xd3\xeb\x00:\x86\xc1c@'
p4049
tp4050
Rp4051
g2
(g6
S'\xee3B\x8dO-s?'
p4052
tp4053
Rp4054
tp4055
sS'agg'
p4056
(F1.4543061494299998
g2
(g6
S'\xd3\xeb\x00:\x86\xc1c@'
p4057
tp4058
Rp4059
g2
(g6
S'\xee3B\x8dO-s?'
p4060
tp4061
Rp4062
tp4063
sS'agc'
p4064
(F1.4543061494299998
g2
(g6
S'\xd3\xeb\x00:\x86\xc1c@'
p4065
tp4066
Rp4067
g2
(g6
S'\xee3B\x8dO-s?'
p4068
tp4069
Rp4070
tp4071
sS'aga'
p4072
(F1.4543061494299998
g2
(g6
S'\xd3\xeb\x00:\x86\xc1c@'
p4073
tp4074
Rp4075
g2
(g6
S'\xee3B\x8dO-s?'
p4076
tp4077
Rp4078
tp4079
sS'AcT'
p4080
(F1.4543061494299998
g2
(g6
S'\xd3\xeb\x00:\x86\xc1c@'
p4081
tp4082
Rp4083
g2
(g6
S'\xee3B\x8dO-s?'
p4084
tp4085
Rp4086
tp4087
sS'agt'
p4088
(F1.4543061494299998
g2
(g6
S'\xd3\xeb\x00:\x86\xc1c@'
p4089
tp4090
Rp4091
g2
(g6
S'\xee3B\x8dO-s?'
p4092
tp4093
Rp4094
tp4095
sS'tGG'
p4096
(F1.4543061494299998
g2
(g6
S'\xd3\xeb\x00:\x86\xc1c@'
p4097
tp4098
Rp4099
g2
(g6
S'\xee3B\x8dO-s?'
p4100
tp4101
Rp4102
tp4103
s.